(lp0
F1515643141.0
aF1515647484.0
aF1515648433.0
aF1515650244.0
aF1515654207.0
a.(lp0
F1515643141.0
aF1515647484.0
aF1515648433.0
aF1515650244.0
aF1515654207.0
a.(lp0
F1515329456.0
aF1515336212.0
aF1515336894.0
aF1515341718.0
aF1515345074.0
aF1515348120.0
aF1515351485.0
aF1515352079.0
aF1515352583.0
aF1515358938.0
aF1515362773.0
aF1515374311.0
aF1515401409.0
aF1515403399.0
aF1515423789.0
aF1515425258.0
aF1515434733.0
aF1515436121.0
aF1515436500.0
aF1515604239.0
a.(lp0
F1440128181.0
aF1440172188.0
aF1440227532.0
aF1440260614.0
aF1440998680.0
aF1440999368.0
aF1441035383.0
aF1441039180.0
aF1441039288.0
aF1441273834.0
aF1441283470.0
aF1441307281.0
aF1441307692.0
aF1441872033.0
aF1441887696.0
aF1441893637.0
aF1441899910.0
aF1441911698.0
aF1441914068.0
aF1441927649.0
a.(lp0
F1439723139.0
aF1439728048.0
aF1439742307.0
aF1439747039.0
aF1439749062.0
aF1439784500.0
aF1439805537.0
aF1439808398.0
aF1439814679.0
aF1439814976.0
aF1439819073.0
aF1439821110.0
aF1439841625.0
aF1439848494.0
aF1439852329.0
aF1439864230.0
aF1440052627.0
aF1440085842.0
aF1440087079.0
aF1440087567.0
a.(lp0
F1515649175.0
aF1515651051.0
aF1515654162.0
aF1515654387.0
aF1515655250.0
a.(lp0
F1515649175.0
aF1515651051.0
aF1515654162.0
aF1515654387.0
aF1515655250.0
a.(lp0
F1515464531.0
aF1515466272.0
aF1515476034.0
aF1515480455.0
aF1515495740.0
aF1515495940.0
aF1515608745.0
aF1515610306.0
aF1515611209.0
aF1515611441.0
aF1515612356.0
aF1515615492.0
aF1515626030.0
aF1515626664.0
aF1515631162.0
aF1515633244.0
aF1515635913.0
aF1515637544.0
aF1515643290.0
aF1515643511.0
a.(lp0
F1500792589.0
aF1500792643.0
aF1500792952.0
aF1500793184.0
aF1500793220.0
aF1500793855.0
aF1500795939.0
aF1500797091.0
aF1500811039.0
aF1500813577.0
aF1500817238.0
aF1500817514.0
aF1500818256.0
aF1500821657.0
aF1500824672.0
aF1500832631.0
aF1500840710.0
aF1500846646.0
aF1500846866.0
aF1500847761.0
a.(lp0
F1500768697.0
aF1500769526.0
aF1500770928.0
aF1500771085.0
aF1500771806.0
aF1500778602.0
aF1500779815.0
aF1500780153.0
aF1500780338.0
aF1500780403.0
aF1500780833.0
aF1500783001.0
aF1500783149.0
aF1500783292.0
aF1500783968.0
aF1500784248.0
aF1500786913.0
aF1500787868.0
aF1500788931.0
aF1500791895.0
a.(lp0
F1515603652.0
aF1515655624.0
a.(lp0
F1515603652.0
aF1515655624.0
a.(lp0
F1511227585.0
aF1511227683.0
aF1511227913.0
aF1511229576.0
aF1511230388.0
aF1511231112.0
aF1511233333.0
aF1511235557.0
aF1511236250.0
aF1511236757.0
aF1511237890.0
aF1511238456.0
aF1511239629.0
aF1511242741.0
aF1511242929.0
aF1511243241.0
aF1511249534.0
aF1511249862.0
aF1511250809.0
aF1511252283.0
aF1511253666.0
aF1511255259.0
aF1511255919.0
aF1511257882.0
aF1511259192.0
aF1511260325.0
aF1511260343.0
aF1511260921.0
aF1511265310.0
aF1511265396.0
aF1511267428.0
aF1511270859.0
aF1511271251.0
aF1511271979.0
aF1511272507.0
aF1511273313.0
aF1511274835.0
aF1511275673.0
aF1511275755.0
aF1511276293.0
aF1511276533.0
aF1511276583.0
aF1511280370.0
aF1511280499.0
aF1511280536.0
aF1511280973.0
aF1511285242.0
aF1511286575.0
aF1511286734.0
aF1511289383.0
aF1511296318.0
aF1511296798.0
aF1511304360.0
aF1511305119.0
aF1511306034.0
aF1511308013.0
aF1511308059.0
aF1511308602.0
aF1513265247.0
aF1513271217.0
aF1513271520.0
aF1513289770.0
aF1513290803.0
aF1513291567.0
aF1513292885.0
aF1513292982.0
aF1513293640.0
aF1513295722.0
aF1513296593.0
aF1513296738.0
aF1513296891.0
aF1513297393.0
aF1513298152.0
aF1513298517.0
aF1513306657.0
aF1513308393.0
aF1513309159.0
aF1513309736.0
aF1513314495.0
aF1513318108.0
aF1513318584.0
aF1513319326.0
aF1513319386.0
aF1513319445.0
aF1513321102.0
aF1513329490.0
aF1513330166.0
aF1513330807.0
aF1513333854.0
aF1513333889.0
aF1513334263.0
aF1513334337.0
aF1513335424.0
aF1513335666.0
aF1513338816.0
aF1513339811.0
aF1513340209.0
aF1513340335.0
aF1513398277.0
aF1513399680.0
aF1513399832.0
aF1513400329.0
aF1513430001.0
aF1513441902.0
aF1513453443.0
aF1513454248.0
aF1513454960.0
aF1513455597.0
aF1513456280.0
aF1513456515.0
aF1513457399.0
aF1513463130.0
aF1513463477.0
aF1513465244.0
aF1513468831.0
aF1513484250.0
aF1513484990.0
aF1513486050.0
aF1513493689.0
aF1513494524.0
aF1513494581.0
aF1513495639.0
aF1513519791.0
aF1513520055.0
aF1513525206.0
aF1513526643.0
aF1513528446.0
aF1513529212.0
aF1513529518.0
aF1513546920.0
aF1513547685.0
aF1513548364.0
aF1513548975.0
aF1513553366.0
aF1513553520.0
aF1513555173.0
aF1513555362.0
aF1513555564.0
aF1513555704.0
aF1513632283.0
aF1513633410.0
aF1513633629.0
aF1513634549.0
aF1513635246.0
aF1513635639.0
aF1513636331.0
aF1513636395.0
aF1513636560.0
aF1513636725.0
aF1513639691.0
aF1513727467.0
aF1513730968.0
aF1513747597.0
aF1513748360.0
aF1513748431.0
aF1513757608.0
aF1513760249.0
aF1513765991.0
aF1513773103.0
aF1513782246.0
aF1513792932.0
aF1513793083.0
aF1513793187.0
aF1513793922.0
aF1513794247.0
aF1513797319.0
aF1513817998.0
aF1513818748.0
aF1513821149.0
aF1513825257.0
aF1513873525.0
aF1513877160.0
aF1513877273.0
aF1513879836.0
aF1513882084.0
aF1513923104.0
aF1513923549.0
aF1513923859.0
aF1513924597.0
aF1513930015.0
aF1513930718.0
aF1513931160.0
aF1513953400.0
aF1513954098.0
aF1513954637.0
aF1513954672.0
aF1513957419.0
aF1513960101.0
aF1513965962.0
aF1513968080.0
aF1513968097.0
aF1513973155.0
aF1513974075.0
aF1513975144.0
aF1513976122.0
aF1513988194.0
aF1513989145.0
aF1513991035.0
aF1513991932.0
aF1513992349.0
aF1513995712.0
aF1513997869.0
aF1513998287.0
aF1513998426.0
aF1514000172.0
aF1514003523.0
aF1514014177.0
aF1514015275.0
aF1514021466.0
aF1514031354.0
aF1514034205.0
aF1514058265.0
aF1514059815.0
aF1514060376.0
aF1514062853.0
aF1514070470.0
aF1514072046.0
aF1514072794.0
aF1514072823.0
aF1514073043.0
aF1514075390.0
aF1514075615.0
aF1514101173.0
aF1514104435.0
aF1514106438.0
aF1514125721.0
aF1514125900.0
aF1514127291.0
aF1514147937.0
aF1514148813.0
aF1514148966.0
aF1514149062.0
aF1514149142.0
aF1514158626.0
aF1514161913.0
aF1514179934.0
aF1514180168.0
aF1514180457.0
aF1514185677.0
aF1514186383.0
aF1514187444.0
aF1514189180.0
aF1514256357.0
aF1514287447.0
aF1514287744.0
aF1514294711.0
aF1514299682.0
aF1514300928.0
aF1514301999.0
aF1514302133.0
aF1514303642.0
aF1514304855.0
aF1514305944.0
aF1514307630.0
aF1514313857.0
aF1514317998.0
aF1514320741.0
aF1514320973.0
aF1514323237.0
aF1514324009.0
aF1514324547.0
aF1514326500.0
aF1514326725.0
aF1514327141.0
aF1514327512.0
aF1514329345.0
aF1514335457.0
aF1514347756.0
aF1514349227.0
aF1514349653.0
aF1514361538.0
aF1514362611.0
aF1514362756.0
aF1514363270.0
aF1514364804.0
aF1514367556.0
aF1514368443.0
aF1514370608.0
aF1514389302.0
aF1514389971.0
aF1514397797.0
aF1514398183.0
aF1514404041.0
aF1514404800.0
aF1514409696.0
aF1514410066.0
aF1514422390.0
aF1514494462.0
aF1514495129.0
aF1514495351.0
aF1514497807.0
aF1514499606.0
aF1514546573.0
aF1514546955.0
aF1514656770.0
aF1514656839.0
aF1514656985.0
aF1514657288.0
aF1514661200.0
aF1514669009.0
aF1514670894.0
aF1514671807.0
aF1514678179.0
aF1514678465.0
aF1514678683.0
aF1514678736.0
aF1514679429.0
aF1514679832.0
aF1514682877.0
aF1514686482.0
aF1514686554.0
aF1514686560.0
aF1514686755.0
aF1514703531.0
aF1514705767.0
aF1514746350.0
aF1514749707.0
aF1514750432.0
aF1514753654.0
aF1514759527.0
aF1514844671.0
aF1514846038.0
aF1514852588.0
aF1514861900.0
aF1514863872.0
aF1514865498.0
aF1514886470.0
aF1514890748.0
aF1514891746.0
aF1514891918.0
aF1514894604.0
aF1514900638.0
aF1514901066.0
aF1514905451.0
aF1514909191.0
aF1514909835.0
aF1514910631.0
aF1514910924.0
aF1514912369.0
aF1514921561.0
aF1514924100.0
aF1514926702.0
aF1514927292.0
aF1514933904.0
aF1514935124.0
aF1514937038.0
aF1514937258.0
aF1515005118.0
aF1515006531.0
aF1515006611.0
aF1515006936.0
aF1515007036.0
aF1515008781.0
aF1515008892.0
aF1515013157.0
aF1515015486.0
aF1515017832.0
aF1515019573.0
aF1515023704.0
aF1515056269.0
aF1515059204.0
aF1515067169.0
aF1515072266.0
aF1515073621.0
aF1515076956.0
aF1515077443.0
aF1515078684.0
aF1515085504.0
aF1515101838.0
aF1515103075.0
aF1515112398.0
aF1515115021.0
aF1515124452.0
aF1515129602.0
aF1515129873.0
aF1515141422.0
aF1515141902.0
aF1515164804.0
aF1515167588.0
aF1515168189.0
aF1515199867.0
aF1515200334.0
aF1515200609.0
aF1515213656.0
aF1515222361.0
aF1515224238.0
aF1515229637.0
aF1515231842.0
aF1515263498.0
aF1515264147.0
aF1515266327.0
aF1515267514.0
aF1515281971.0
aF1515288688.0
aF1515289814.0
aF1515290767.0
aF1515293470.0
aF1515302085.0
aF1515312368.0
aF1515328620.0
aF1515329072.0
aF1515329946.0
aF1515331488.0
aF1515344642.0
aF1515345275.0
aF1515345747.0
aF1515346078.0
aF1515351345.0
aF1515351673.0
aF1515356922.0
aF1515357273.0
aF1515365179.0
aF1515365273.0
aF1515366054.0
aF1515368070.0
aF1515371667.0
aF1515372774.0
aF1515451431.0
aF1515452105.0
aF1515452768.0
aF1515453220.0
aF1515457578.0
aF1515464367.0
aF1515474524.0
aF1515478665.0
aF1515478731.0
aF1515487141.0
aF1515491780.0
aF1515499780.0
aF1515500047.0
aF1515500145.0
aF1515500454.0
aF1515504453.0
aF1515511500.0
aF1515513229.0
aF1515574594.0
aF1515575820.0
aF1515579767.0
aF1515601938.0
aF1515602097.0
aF1515603652.0
aF1515655624.0
a.(lp0
F1515453220.0
aF1515457578.0
aF1515464367.0
aF1515474524.0
aF1515478665.0
aF1515478731.0
aF1515487141.0
aF1515491780.0
aF1515499780.0
aF1515500047.0
aF1515500145.0
aF1515500454.0
aF1515504453.0
aF1515511500.0
aF1515513229.0
aF1515574594.0
aF1515575820.0
aF1515579767.0
aF1515601938.0
aF1515602097.0
a.(lp0
F1511253666.0
aF1511255259.0
aF1511255919.0
aF1511257882.0
aF1511259192.0
aF1511260325.0
aF1511260343.0
aF1511260921.0
aF1511265310.0
aF1511265396.0
aF1511267428.0
aF1511270859.0
aF1511271251.0
aF1511271979.0
aF1511272507.0
aF1511273313.0
aF1511274835.0
aF1511275673.0
aF1511275755.0
aF1511276293.0
a.(lp0
F1511227585.0
aF1511227683.0
aF1511227913.0
aF1511229576.0
aF1511230388.0
aF1511231112.0
aF1511233333.0
aF1511235557.0
aF1511236250.0
aF1511236757.0
aF1511237890.0
aF1511238456.0
aF1511239629.0
aF1511242741.0
aF1511242929.0
aF1511243241.0
aF1511249534.0
aF1511249862.0
aF1511250809.0
aF1511252283.0
a.(lp0
F1515624880.0
aF1515654061.0
aF1515654335.0
aF1515655992.0
aF1515656495.0
a.(lp0
F1515624880.0
aF1515654061.0
aF1515654335.0
aF1515655992.0
aF1515656495.0
a.(lp0
F1489901553.0
aF1489918652.0
aF1489920299.0
aF1489939747.0
aF1489948450.0
aF1490001704.0
aF1505577241.0
aF1513610231.0
aF1514298146.0
aF1514420826.0
aF1514431279.0
aF1515434067.0
aF1515434390.0
aF1515434479.0
aF1515435930.0
aF1515641111.0
aF1515645470.0
aF1515646201.0
aF1515656641.0
aF-693369818.0
a.(lp0
F1489765739.0
aF1489767966.0
aF1489768768.0
aF1489781482.0
aF1489784518.0
aF1489785445.0
aF1489817028.0
aF1489820021.0
aF1489843518.0
aF1489850736.0
aF1489858468.0
aF1489859211.0
aF1489859936.0
aF1489860501.0
aF1489865436.0
aF1489867091.0
aF1489871926.0
aF1489872664.0
aF1489884237.0
aF1489889820.0
aF1489901553.0
aF1489918652.0
aF1489920299.0
aF1489939747.0
aF1489948450.0
aF1490001704.0
aF1505577241.0
aF1513610231.0
aF1514298146.0
aF1514420826.0
aF1514431279.0
aF1515434067.0
aF1515434390.0
aF1515434479.0
aF1515435930.0
aF1515641111.0
aF1515645470.0
aF1515646201.0
aF1515656641.0
aF-693369818.0
a.