(lp0
F1476789466.0
a.(lp0
F1447895124.0
aF1447938883.0
aF1447960345.0
aF1447960782.0
aF1447975734.0
aF1447977231.0
aF1447985354.0
aF1448092433.0
aF1448096434.0
aF1448098502.0
aF1448116428.0
aF1448150652.0
aF1448175324.0
aF1448190546.0
aF1448203710.0
aF1448204816.0
aF1448250120.0
aF1448346854.0
aF1448397768.0
aF1448398200.0
aF1448420988.0
aF1448621354.0
aF1448717336.0
aF1448787066.0
aF1448807015.0
aF1448860410.0
aF1448860596.0
aF1448860781.0
aF1448895341.0
aF1448896646.0
aF1448902953.0
aF1448921831.0
aF1448994342.0
aF1449431995.0
aF1449469069.0
aF1449474650.0
aF1449491659.0
aF1449588739.0
aF1449664470.0
aF1450207038.0
aF1450207563.0
aF1450237102.0
aF1450379098.0
aF1451104925.0
aF1452058932.0
aF1452065758.0
aF1452079337.0
aF1452096769.0
aF1452118494.0
aF1452124387.0
aF1452128988.0
aF1452129605.0
aF1452160426.0
aF1452164180.0
aF1452169626.0
aF1452468226.0
aF1452481050.0
aF1452495703.0
aF1452501334.0
aF1452605095.0
aF1452606442.0
aF1452648045.0
aF1452648192.0
aF1452659383.0
aF1452668480.0
aF1452678357.0
aF1452707622.0
aF1452709027.0
aF1452722117.0
aF1452772133.0
aF1452782354.0
aF1452783538.0
aF1452787436.0
aF1453045382.0
aF1453095910.0
aF1453103288.0
aF1453153170.0
aF1453169205.0
aF1453177946.0
aF1453233976.0
aF1453280293.0
aF1453482739.0
aF1453492487.0
aF1453579894.0
aF1453580379.0
aF1453672784.0
aF1453678915.0
aF1453693774.0
aF1453708305.0
aF1453829418.0
aF1454101426.0
aF1454229273.0
aF1454269543.0
aF1454305028.0
aF1454372632.0
aF1454381545.0
aF1454699610.0
aF1454790573.0
aF1454818881.0
aF1454829193.0
aF1454848113.0
aF1454972773.0
aF1455038322.0
aF1455303526.0
aF1455328435.0
aF1455463781.0
aF1455539825.0
aF1455565596.0
aF1455630812.0
aF1455647640.0
aF1455649646.0
aF1455651613.0
aF1455668427.0
aF1456333325.0
aF1456342660.0
aF1456595000.0
aF1456626206.0
aF1459541443.0
aF1459545511.0
aF1459597086.0
aF1459713083.0
aF1459733390.0
aF1459792251.0
aF1459850071.0
aF1459910548.0
aF1459911192.0
aF1460135765.0
aF1460300065.0
aF1460325988.0
aF1460503398.0
aF1462831112.0
aF1462843543.0
aF1462876908.0
aF1462882302.0
aF1462913528.0
aF1462932218.0
aF1463091963.0
aF1463092818.0
aF1463110863.0
aF1463119259.0
aF1463594464.0
aF1463595832.0
aF1463742395.0
aF1463752261.0
aF1463797477.0
aF1463826898.0
aF1463865891.0
aF1464002828.0
aF1464027823.0
aF1464789969.0
aF1464809436.0
aF1464815866.0
aF1464822232.0
aF1464863554.0
aF1464893764.0
aF1464903831.0
aF1465322631.0
aF1465325890.0
aF1465337163.0
aF1465374726.0
aF1465381095.0
aF1465384589.0
aF1465386744.0
aF1465473440.0
aF1465606164.0
aF1465614942.0
aF1465671233.0
aF1465731401.0
aF1465762506.0
aF1465767307.0
aF1465778998.0
aF1465805989.0
aF1465830272.0
aF1466066409.0
aF1466317743.0
aF1466617291.0
aF1466621529.0
aF1466757030.0
aF1466762232.0
aF1466766505.0
aF1466887897.0
aF1466889925.0
aF1466891856.0
aF1466949395.0
aF1466961160.0
aF1466999520.0
aF1467003207.0
aF1467070696.0
aF1467173940.0
aF1467665053.0
aF1467735666.0
aF1467807461.0
aF1467813970.0
aF1467841029.0
aF1467849099.0
aF1467871264.0
aF1467878046.0
aF1467910090.0
aF1467912956.0
aF1467939768.0
aF1467955702.0
aF1467969329.0
aF1468007321.0
aF1468008387.0
aF1468021292.0
aF1468021806.0
aF1468022668.0
aF1468026387.0
aF1468052981.0
aF1468100174.0
aF1468104713.0
aF1468107868.0
aF1468268857.0
aF1468359740.0
aF1468363021.0
aF1468615434.0
aF1468617296.0
aF1468623856.0
aF1468625660.0
aF1468652396.0
aF1468672248.0
aF1468688766.0
aF1468689499.0
aF1468689516.0
aF1468691060.0
aF1468709608.0
aF1468773329.0
aF1468792452.0
aF1468856894.0
aF1468871563.0
aF1468953967.0
aF1468967235.0
aF1468967892.0
aF1468970364.0
aF1468971034.0
aF1469438501.0
aF1469505568.0
aF1469530515.0
aF1469540801.0
aF1469547623.0
aF1469553366.0
aF1469749765.0
aF1469751587.0
aF1470012047.0
aF1470012681.0
aF1470503427.0
aF1470610094.0
aF1470671636.0
aF1470671977.0
aF1470789459.0
aF1470836811.0
aF1470864296.0
aF1470953818.0
aF1470957700.0
aF1471019573.0
aF1471027390.0
aF1471029494.0
aF1471063083.0
aF1471106015.0
aF1471225865.0
aF1471231654.0
aF1471285354.0
aF1471286009.0
aF1471286152.0
aF1471384530.0
aF1471401036.0
aF1471428397.0
aF1471474265.0
aF1471474483.0
aF1471486040.0
aF1471515961.0
aF1471533230.0
aF1471554299.0
aF1471557771.0
aF1471564507.0
aF1471710626.0
aF1471715539.0
aF1471715916.0
aF1471728883.0
aF1472160971.0
aF1472169888.0
aF1472227143.0
aF1472253742.0
aF1472499137.0
aF1472515607.0
aF1472596401.0
aF1472631063.0
aF1472657614.0
aF1472685134.0
aF1472716523.0
aF1472746936.0
aF1472748416.0
aF1472768183.0
aF1472778503.0
aF1472792067.0
aF1472840341.0
aF1472848375.0
aF1472859967.0
aF1472860850.0
aF1472920257.0
aF1473087000.0
aF1473088397.0
aF1473089312.0
aF1473089566.0
aF1473092053.0
aF1473093709.0
aF1473247297.0
aF1473259549.0
aF1473296021.0
aF1473340500.0
aF1473347839.0
aF1473351966.0
aF1473361743.0
aF1473362388.0
aF1473364491.0
aF1473367590.0
aF1473378862.0
aF1473389343.0
aF1473429171.0
aF1473443552.0
aF1473448845.0
aF1473457067.0
aF1473458132.0
aF1473464317.0
aF1473540742.0
aF1473613334.0
aF1473616767.0
aF1473626890.0
aF1473628057.0
aF1473629392.0
aF1473630976.0
aF1473660933.0
aF1473673822.0
aF1473685191.0
aF1473687562.0
aF1473692597.0
aF1473693527.0
aF1473707375.0
aF1473715623.0
aF1473773796.0
aF1473776383.0
aF1473777565.0
aF1473781468.0
aF1473783945.0
aF1473787414.0
aF1473795905.0
aF1473796227.0
aF1473800121.0
aF1473806265.0
aF1473810858.0
aF1473811289.0
aF1473815170.0
aF1473815788.0
aF1473942628.0
aF1473952699.0
aF1473953079.0
aF1473953189.0
aF1473955697.0
aF1473962546.0
aF1473965607.0
aF1473976243.0
aF1473994959.0
aF1474005139.0
aF1474018358.0
aF1474029940.0
aF1474036880.0
aF1474037946.0
aF1474040690.0
aF1474044303.0
aF1474047802.0
aF1474047919.0
aF1474056780.0
aF1474063756.0
aF1474066697.0
aF1474071580.0
aF1474078274.0
aF1474394749.0
aF1474394872.0
aF1474400409.0
aF1474404219.0
aF1474406317.0
aF1474410791.0
aF1474413691.0
aF1474414254.0
aF1474432077.0
aF1474473437.0
aF1474474933.0
aF1474491027.0
aF1474492929.0
aF1474504163.0
aF1474507447.0
aF1474508342.0
aF1474535840.0
aF1474555273.0
aF1474559496.0
aF1474650113.0
aF1474662838.0
aF1474672873.0
aF1474676877.0
aF1474687811.0
aF1474692499.0
aF1474715485.0
aF1474731267.0
aF1474739760.0
aF1474742962.0
aF1474749926.0
aF1474756381.0
aF1474767243.0
aF1474772310.0
aF1474792924.0
aF1474798136.0
aF1474808640.0
aF1474823879.0
aF1474841833.0
aF1474842442.0
aF1474856678.0
aF1474879944.0
aF1474915738.0
aF1474928885.0
aF1474930998.0
aF1474932122.0
aF1474933072.0
aF1474991678.0
aF1475022644.0
aF1475052695.0
aF1475099934.0
aF1475101368.0
aF1475111699.0
aF1475111977.0
aF1475112403.0
aF1475112764.0
aF1475120346.0
aF1475161830.0
aF1475194093.0
aF1475209611.0
aF1475210618.0
aF1475227486.0
aF1475227904.0
aF1475229915.0
aF1475235046.0
aF1475249067.0
aF1475256382.0
aF1475264156.0
aF1475272356.0
aF1475272741.0
aF1475362914.0
aF1475363406.0
aF1475363577.0
aF1475366910.0
aF1475385031.0
aF1475419333.0
aF1475432376.0
aF1475463156.0
aF1475501299.0
aF1475524049.0
aF1475534444.0
aF1475536868.0
aF1475554881.0
aF1475555956.0
aF1475563397.0
aF1475577686.0
aF1475592748.0
aF1475593637.0
aF1475595148.0
aF1475597655.0
aF1475609022.0
aF1475615782.0
aF1475619321.0
aF1475622799.0
aF1475623164.0
aF1475644312.0
aF1475646087.0
aF1475675884.0
aF1475679038.0
aF1475686321.0
aF1475700512.0
aF1475701697.0
aF1475707157.0
aF1475709307.0
aF1475751794.0
aF1475752000.0
aF1475756107.0
aF1475756598.0
aF1475776697.0
aF1475777488.0
aF1475793134.0
aF1475794205.0
aF1475804002.0
aF1475811439.0
aF1475833008.0
aF1475842119.0
aF1475844612.0
aF1475844983.0
aF1475852007.0
aF1475853498.0
aF1475861171.0
aF1475876193.0
aF1475882888.0
aF1475981942.0
aF1475997648.0
aF1476037444.0
aF1476042033.0
aF1476109890.0
aF1476112570.0
aF1476115128.0
aF1476135054.0
aF1476141141.0
aF1476160458.0
aF1476196926.0
aF1476201957.0
aF1476203191.0
aF1476204856.0
aF1476217721.0
aF1476221846.0
aF1476227631.0
aF1476233694.0
aF1476294734.0
aF1476306502.0
aF1476306576.0
aF1476401343.0
aF1476403540.0
aF1476456258.0
aF1476457194.0
aF1476476278.0
aF1476476554.0
aF1476477229.0
aF1476477925.0
aF1476478871.0
aF1476481316.0
aF1476484485.0
aF1476489956.0
aF1476491647.0
aF1476559919.0
aF1476561778.0
aF1476611866.0
aF1476623517.0
aF1476624940.0
aF1476658320.0
aF1476664685.0
aF1476682006.0
aF1476682676.0
aF1476745148.0
aF1476745427.0
aF1476748716.0
aF1476803024.0
aF1476834347.0
aF1476835882.0
aF1476848111.0
aF1476852288.0
aF1476866187.0
aF1476867102.0
aF1476914820.0
aF1476975933.0
aF1476989287.0
aF1477000812.0
aF1477003230.0
aF1477003456.0
aF1477018524.0
aF1477018845.0
aF1477037851.0
aF1477068042.0
aF1477068807.0
aF1477079244.0
aF1477080752.0
aF1477085962.0
aF1477088888.0
aF1477094678.0
aF1477096364.0
aF1477103254.0
aF1477129494.0
aF1477138310.0
aF1477151522.0
aF1477193364.0
aF1477232746.0
aF1477242762.0
aF1477256254.0
aF1477270121.0
aF1477631831.0
aF1477638179.0
aF1477638612.0
aF1477659426.0
aF1477667846.0
aF1477669700.0
aF1477678752.0
aF1477691624.0
aF1477717244.0
aF1477724937.0
aF1477771232.0
aF1477866026.0
aF1478004121.0
aF1478007134.0
aF1478012459.0
aF1478028250.0
aF1478109227.0
aF1478111434.0
aF1478111671.0
aF1478114368.0
aF1478119977.0
aF1478131239.0
aF1478136794.0
aF1478141821.0
aF1478143273.0
aF1478150685.0
aF1478160968.0
aF1478161744.0
aF1478162530.0
aF1478162932.0
aF1478164884.0
aF1478220442.0
aF1478227093.0
aF1478229786.0
aF1478240989.0
aF1478250794.0
aF1478251054.0
aF1478278400.0
aF1478279097.0
aF1478294913.0
aF1478306179.0
aF1478306264.0
aF1478306446.0
aF1478308261.0
aF1478312063.0
aF1478412920.0
aF1478434123.0
aF1478493310.0
aF1478537211.0
aF1478559089.0
aF1478563804.0
aF1478577820.0
aF1478648808.0
aF1478700259.0
aF1478726410.0
aF1479074214.0
aF1479076395.0
aF1479076835.0
aF1479081267.0
aF1479123169.0
aF1479133384.0
aF1479134311.0
aF1479159194.0
aF1479212074.0
aF1479212410.0
aF1479212877.0
aF1479265956.0
aF1479297027.0
aF1479299757.0
aF1479342564.0
aF1479376658.0
aF1479429768.0
aF1479433227.0
aF1480035029.0
aF1480073008.0
aF1480073784.0
aF1480074009.0
aF1480077379.0
aF1480078493.0
aF1480093264.0
aF1480093928.0
aF1480097318.0
aF1480099281.0
aF1480106969.0
aF1480113464.0
aF1480113770.0
aF1480116451.0
aF1480116966.0
aF1480231348.0
aF1480257369.0
aF1480270572.0
aF1480277652.0
aF1480289321.0
aF1480289573.0
aF1480292690.0
aF1480297085.0
aF1480496018.0
aF1480497393.0
aF1480499191.0
aF1480509903.0
aF1480517584.0
aF1480527035.0
aF1480751213.0
aF1480755999.0
aF1480768298.0
aF1480773669.0
aF1480776535.0
aF1480783378.0
aF1480784342.0
aF1480801135.0
aF1480808088.0
aF1480809349.0
aF1480810402.0
aF1480813671.0
aF1480814027.0
aF1480877758.0
aF1481158758.0
aF1481163991.0
aF1481203996.0
aF1481211783.0
aF1481212789.0
aF1481286919.0
aF1481309140.0
aF1481309459.0
aF1481311753.0
aF1482184171.0
aF1482190014.0
aF1482210956.0
aF1482225414.0
aF1482241366.0
aF1482250008.0
aF1482255356.0
aF1482259593.0
aF1482267156.0
aF1482271325.0
aF1482292603.0
aF1482297488.0
aF1482318454.0
aF1482359209.0
aF1482363493.0
aF1482367152.0
aF1482370885.0
aF1482373979.0
aF1482374198.0
aF1482378840.0
aF1482433235.0
aF1482433766.0
aF1482434097.0
aF1482442938.0
aF1482446816.0
aF1482447263.0
aF1482448787.0
aF1482451189.0
aF1482459637.0
aF1482465904.0
aF1482466540.0
aF1482492855.0
aF1482504849.0
aF1482527041.0
aF1482537456.0
aF1482537604.0
aF1482538110.0
aF1482538255.0
aF1482590171.0
aF1482599364.0
aF1482607355.0
aF1482681884.0
aF1482718306.0
aF1482719789.0
aF1482791147.0
aF1482792511.0
aF1482792741.0
aF1482904389.0
aF1482909595.0
aF1482935151.0
aF1482937039.0
aF1482937456.0
aF1482968877.0
aF1482969998.0
aF1482976347.0
aF1483006412.0
aF1483028953.0
aF1483037297.0
aF1483039592.0
aF1483102346.0
aF1483122470.0
aF1483144595.0
aF1483230921.0
aF1483372312.0
aF1483387082.0
aF1483389123.0
aF1483393941.0
aF1483396135.0
aF1483410366.0
aF1483411837.0
aF1483430843.0
aF1483452223.0
aF1483456765.0
aF1483458345.0
aF1483490815.0
aF1483493095.0
aF1483533446.0
aF1483547387.0
aF1483552993.0
aF1483555913.0
aF1483570096.0
aF1483571392.0
aF1483584453.0
aF1483589251.0
aF1483618794.0
aF1483656924.0
aF1483705543.0
aF1483717859.0
aF1483721092.0
aF1483757434.0
aF1483811657.0
aF1483825859.0
aF1483826335.0
aF1483826769.0
aF1483828457.0
aF1483837403.0
aF1483841378.0
aF1483842060.0
aF1483858291.0
aF1483868851.0
aF1483884273.0
aF1483885777.0
aF1483896500.0
aF1483897343.0
aF1483908557.0
aF1483910865.0
aF1483914538.0
aF1483915717.0
aF1483939437.0
aF1483942103.0
aF1483971180.0
aF1483971916.0
aF1483989092.0
aF1484004949.0
aF1484010588.0
aF1484011188.0
aF1484014605.0
aF1484027575.0
aF1484086185.0
aF1484088534.0
aF1484098261.0
aF1484102073.0
aF1484114104.0
aF1484123377.0
aF1484125254.0
aF1484127134.0
aF1484129735.0
aF1484129751.0
aF1484143170.0
aF1484171061.0
aF1484172816.0
aF1484195448.0
aF1484203205.0
aF1484203494.0
aF1484217152.0
aF1484223374.0
aF1484225066.0
aF1484229585.0
aF1484230239.0
aF1484231436.0
aF1484337634.0
aF1484338316.0
aF1484344230.0
aF1484352706.0
aF1484385027.0
aF1484390201.0
aF1484397186.0
aF1484409366.0
aF1484420737.0
aF1484428931.0
aF1484465378.0
aF1484501160.0
aF1484572250.0
aF1484597874.0
aF1484629598.0
aF1484644831.0
aF1484694318.0
aF1484694952.0
aF1484695451.0
aF1484745020.0
aF1484745201.0
aF1484751835.0
aF1484817503.0
aF1484899492.0
aF1484900064.0
aF1484929186.0
aF1484945866.0
aF1484956937.0
aF1485294073.0
aF1485412533.0
aF1485417174.0
aF1485436279.0
aF1485447246.0
aF1485483478.0
aF1485509398.0
aF1485511577.0
aF1485534759.0
aF1485539040.0
aF1485552234.0
aF1485561498.0
aF1485580752.0
aF1485581221.0
aF1485611397.0
aF1485613803.0
aF1485619587.0
aF1485628940.0
aF1485629685.0
aF1485633488.0
aF1485634134.0
aF1485740612.0
aF1485761967.0
aF1485798727.0
aF1485907221.0
aF1485908220.0
aF1485926849.0
aF1485930252.0
aF1485956182.0
aF1485956771.0
aF1485960876.0
aF1485961401.0
aF1485963973.0
aF1485980116.0
aF1485983654.0
aF1485987407.0
aF1486035100.0
aF1486043036.0
aF1486061711.0
aF1486075226.0
aF1486093461.0
aF1486140020.0
aF1486481875.0
aF1486485647.0
aF1486488867.0
aF1486561726.0
aF1486566755.0
aF1486570549.0
aF1486572591.0
aF1486597022.0
aF1486653248.0
aF1486660936.0
aF1486672862.0
aF1486673495.0
aF1486674944.0
aF1486675469.0
aF1486675824.0
aF1486676785.0
aF1486757690.0
aF1486758110.0
aF1486770070.0
aF1487147821.0
aF1487152002.0
aF1487277729.0
aF1487288933.0
aF1487297885.0
aF1487307650.0
aF1487347573.0
aF1487363032.0
aF1487375603.0
aF1487431042.0
aF1487431402.0
aF1487431827.0
aF1487432492.0
aF1487438533.0
aF1487605794.0
aF1487775769.0
aF1487857785.0
aF1487860050.0
aF1487869371.0
aF1487956031.0
aF1487980630.0
aF1488003881.0
aF1488006036.0
aF1488007290.0
aF1488052682.0
aF1488066317.0
aF1488066975.0
aF1488123311.0
aF1488124201.0
aF1488215972.0
aF1488216510.0
aF1488218087.0
aF1489004864.0
aF1489008145.0
aF1489060976.0
aF1489445254.0
aF1489687940.0
aF1489692845.0
aF1489706941.0
aF1489748932.0
aF1489751191.0
aF1489754168.0
aF1489757170.0
aF1489760247.0
aF1489767783.0
aF1489770162.0
aF1489774072.0
aF1489774822.0
aF1489775295.0
aF1489809930.0
aF1489810053.0
aF1489814781.0
aF1489849264.0
aF1489858469.0
aF1489862500.0
aF1489877492.0
aF1490103274.0
aF1490104417.0
aF1490124192.0
aF1490131182.0
aF1490131723.0
aF1490180665.0
aF1490205655.0
aF1490212625.0
aF1490213257.0
aF1490219543.0
aF1490229470.0
aF1490303898.0
aF1490305354.0
aF1490315391.0
aF1490375686.0
aF1490381651.0
aF1490388409.0
aF1490402196.0
aF1490444047.0
aF1490456264.0
aF1490564625.0
aF1491674758.0
aF1491754825.0
aF1491831208.0
aF1491832531.0
aF1491848034.0
aF1491859403.0
aF1491859827.0
aF1491904731.0
aF1491907425.0
aF1491958081.0
aF1491974013.0
aF1491995538.0
aF1517364452.0
aF1517367303.0
aF1517413797.0
aF1517427942.0
aF1517450448.0
aF1517502345.0
aF1517677752.0
aF1517900069.0
aF1517925492.0
aF1517930036.0
aF1517931321.0
aF1517949486.0
aF-690950807.0
aF1448420988.0
aF1448621354.0
aF1448717336.0
aF1448787066.0
aF1448807015.0
aF1448860410.0
aF1448860596.0
aF1448860781.0
aF1448895341.0
aF1448896646.0
aF1448902953.0
aF1448921831.0
aF1448994342.0
aF1449431995.0
aF1449469069.0
aF1449474650.0
aF1449491659.0
aF1449588739.0
aF1449664470.0
aF1450207038.0
a.(lp0
F1515567376.0
aF1515568449.0
aF1515568969.0
aF1515570039.0
aF1515579351.0
aF1515581926.0
aF1515583656.0
aF1515586798.0
aF1515590525.0
aF1515599452.0
aF1515602236.0
aF1515602365.0
aF1515605862.0
aF1515606307.0
aF1515608032.0
aF1515608449.0
aF1515610916.0
aF1515616455.0
aF1515616718.0
aF1515619737.0
aF1515620528.0
aF1515625646.0
aF1515630672.0
aF1515636193.0
aF1515637544.0
aF1515646755.0
aF1515651222.0
aF1515654125.0
aF1515655690.0
aF1515667334.0
aF1515668675.0
aF1515679621.0
aF1515681811.0
aF1515684652.0
aF1515686986.0
aF1515688300.0
aF1515689153.0
aF1515690639.0
aF1515696417.0
aF1515700237.0
aF1515706356.0
aF1515716180.0
aF1515737549.0
aF1515738569.0
aF1515739454.0
aF1515739774.0
aF1515740035.0
aF1515743257.0
aF1515776166.0
aF1515777535.0
aF1515780937.0
aF1515804554.0
aF1515805097.0
aF1515807033.0
aF1515807061.0
aF1515820996.0
aF1515821338.0
aF1515827141.0
aF1515845221.0
aF1515849348.0
aF1515852686.0
aF1515855437.0
aF1515857304.0
aF1515858045.0
aF1515883999.0
aF1516002080.0
aF1516071070.0
aF1516080323.0
aF1516085808.0
aF1516097324.0
aF1516107155.0
aF1516115415.0
aF1516126212.0
aF1516126354.0
aF1516126393.0
aF1516126647.0
aF1516137611.0
aF1516138751.0
aF1516168103.0
aF1516179679.0
aF1516208710.0
aF1516216594.0
aF1516275694.0
aF1516286461.0
aF1516292469.0
aF1516301378.0
aF1516308426.0
aF1516477141.0
aF1516480951.0
aF1516632189.0
aF1516931909.0
aF1516934113.0
aF1516949458.0
aF1516956199.0
aF1516962816.0
aF1516967717.0
aF1516972942.0
aF1517067265.0
aF1517161864.0
aF1517164280.0
aF1517175605.0
aF1517184493.0
aF1517243167.0
aF1517302866.0
aF1517315680.0
aF1517495087.0
aF1517498861.0
aF1517648231.0
aF1517651796.0
aF1517720125.0
aF1517724020.0
aF1517776071.0
aF1517778518.0
aF1517988218.0
aF-690962915.0
aF-690948532.0
aF1515620528.0
aF1515625646.0
aF1515630672.0
aF1515636193.0
aF1515637544.0
aF1515646755.0
aF1515651222.0
aF1515654125.0
aF1515655690.0
aF1515667334.0
aF1515668675.0
aF1515679621.0
aF1515681811.0
aF1515684652.0
aF1515686986.0
aF1515688300.0
aF1515689153.0
aF1515690639.0
aF1515696417.0
aF1515700237.0
a.(lp0
F-690948743.0
aF-690942550.0
a.(lp0
F1506276664.0
aF1506279219.0
aF1506283424.0
aF1506283449.0
aF1506289105.0
aF1506334475.0
aF1506335021.0
aF1506352752.0
aF1506360558.0
aF1506363788.0
aF1506364337.0
aF1506389432.0
aF1506426558.0
aF1506427846.0
aF1506446730.0
aF1506451633.0
aF1506503249.0
aF1506522189.0
aF1506528287.0
aF1506528798.0
aF1506530945.0
aF1506538067.0
aF1506597407.0
aF1506606842.0
aF1506613954.0
aF1506706843.0
aF1506824307.0
aF1506876457.0
aF1506879056.0
aF1506934785.0
aF1506945119.0
aF1506946887.0
aF1506956666.0
aF1508025012.0
aF1508030692.0
aF1508179697.0
aF1508182651.0
aF1508194693.0
aF1508207509.0
aF1508208739.0
aF1508258576.0
aF1508259044.0
aF1508260342.0
aF1508260749.0
aF1508275100.0
aF1508275854.0
aF1508289755.0
aF1508328897.0
aF1508396426.0
aF1508414734.0
aF1508435807.0
aF1508437244.0
aF1508439407.0
aF1508439534.0
aF1508446962.0
aF1508448979.0
aF1508452275.0
aF1508452469.0
aF1508453594.0
aF1508458163.0
aF1508458288.0
aF1508505905.0
aF1508556041.0
aF1508559147.0
aF1508561788.0
aF1508593200.0
aF1508593921.0
aF1508596227.0
aF1508617826.0
aF1508618966.0
aF1508711407.0
aF1508725706.0
aF1508728141.0
aF1508728700.0
aF1508728871.0
aF1508740641.0
aF1508760373.0
aF1508762156.0
aF1508765062.0
aF1508765704.0
aF1508773150.0
aF1508778262.0
aF1508781202.0
aF1508818622.0
aF1508840567.0
aF1508848556.0
aF1508881096.0
aF1508891865.0
aF1508944959.0
aF1508959141.0
aF1509012961.0
aF1509056249.0
aF1509075866.0
aF1509092349.0
aF1509100908.0
aF1509117736.0
aF1509127307.0
aF1509132906.0
aF1509165773.0
aF1509168286.0
aF1509204359.0
aF1509204544.0
aF1509219700.0
aF1509237125.0
aF1509242888.0
aF1509247377.0
aF1509254451.0
aF1509254966.0
aF1509295099.0
aF1509298621.0
aF1509313968.0
aF1509322392.0
aF1509370622.0
aF1509395990.0
aF1509396923.0
aF1509398359.0
aF1509399923.0
aF1509400598.0
aF1509403234.0
aF1509414517.0
aF1509438789.0
aF1509455752.0
aF1509456166.0
aF1509461306.0
aF1509496683.0
aF1509532126.0
aF1509542729.0
aF1509560648.0
aF1509565518.0
aF1509571185.0
aF1509575059.0
aF1509581296.0
aF1509582389.0
aF1509587489.0
aF1509617180.0
aF1509622489.0
aF1509624207.0
aF1509663191.0
aF1509674174.0
aF1509720326.0
aF1509735190.0
aF1509758360.0
aF1509777962.0
aF1509793827.0
aF1509817732.0
aF1509827848.0
aF1509829084.0
aF1509883201.0
aF1509926096.0
aF1510084914.0
aF1510115465.0
aF1510190371.0
aF1510254250.0
aF1510254289.0
aF1510291611.0
aF1510300313.0
aF1510326715.0
aF1510330785.0
aF1510417645.0
aF1510421383.0
aF1510425845.0
aF1510432887.0
aF1510446252.0
aF1510447046.0
aF1510464998.0
aF1510482583.0
aF1510486448.0
aF1510490800.0
aF1510523886.0
aF1510533541.0
aF1510592233.0
aF1510609069.0
aF1510613710.0
aF1510617147.0
aF1510784552.0
aF1510786796.0
aF1510787957.0
aF1510788083.0
aF1510844429.0
aF1510882297.0
aF1510883119.0
aF1510886298.0
aF1510889741.0
aF1510922251.0
aF1511182053.0
aF1511247398.0
aF1511415763.0
aF1511420443.0
aF1511618378.0
aF1511626375.0
aF1511629193.0
aF1511659465.0
aF1511674362.0
aF1511909079.0
aF1511909904.0
aF1511927826.0
aF1512022552.0
aF1512060627.0
aF1512140590.0
aF1512143799.0
aF1512157137.0
aF1512165414.0
aF1512169526.0
aF1512175179.0
aF1512221922.0
aF1512238537.0
aF1512240519.0
aF1512279426.0
aF1512301341.0
aF1512306829.0
aF1512307735.0
aF1512334003.0
aF1512341130.0
aF1512356458.0
aF1512357484.0
aF1512512371.0
aF1512547837.0
aF1512559548.0
aF1512590385.0
aF1512590747.0
aF1512595456.0
aF1512654229.0
aF1512657897.0
aF1512658688.0
aF1512661465.0
aF1512701250.0
aF1512760067.0
aF1512765188.0
aF1512774189.0
aF1512787063.0
aF1512789971.0
aF1512792103.0
aF1512797711.0
aF1512825955.0
aF1512827107.0
aF1512888871.0
aF1512911663.0
aF1512966764.0
aF1512970652.0
aF1512972545.0
aF1512974552.0
aF1513000299.0
aF1513001799.0
aF1513006872.0
aF1513012530.0
aF1513026671.0
aF1513033379.0
aF1513042741.0
aF1513043325.0
aF1513097048.0
aF1513103557.0
aF1513129122.0
aF1513173707.0
aF1513180496.0
aF1513221565.0
aF1513271769.0
aF1513404451.0
aF1513538531.0
aF1513556344.0
aF1513556473.0
aF1513589157.0
aF1513596169.0
aF1513635069.0
aF1513644326.0
aF1513653433.0
aF1513732031.0
aF1513738002.0
aF1513856844.0
aF1513889705.0
aF1513890765.0
aF1514234304.0
aF1514503377.0
aF1514514633.0
aF1514544682.0
aF1514587930.0
aF1514599830.0
aF1514665384.0
aF1514725602.0
aF1514767742.0
aF1514791936.0
aF1514895435.0
aF1514920563.0
aF1515105945.0
aF1515109143.0
aF1515145176.0
aF1515150035.0
aF1515162471.0
aF1515226586.0
aF1515303384.0
aF1515310031.0
aF1515342716.0
aF1516812732.0
aF1516815906.0
aF1516817351.0
aF1516841999.0
aF1516918818.0
aF1516924445.0
aF1516934218.0
aF1516958248.0
aF1516965084.0
aF1516978457.0
aF1516983136.0
aF1517068435.0
aF1517756932.0
aF1517774986.0
aF1517836972.0
aF1517845661.0
aF1517858812.0
aF1517870880.0
aF1517886296.0
aF1517957106.0
aF1517973519.0
aF-690941275.0
aF1506530945.0
aF1506538067.0
aF1506597407.0
aF1506606842.0
aF1506613954.0
aF1506706843.0
aF1506824307.0
aF1506876457.0
aF1506879056.0
aF1506934785.0
aF1506945119.0
aF1506946887.0
aF1506956666.0
aF1508025012.0
aF1508030692.0
aF1508179697.0
aF1508182651.0
aF1508194693.0
aF1508207509.0
aF1508208739.0
a.(lp0
F-690940602.0
a.(lp0
F1513459994.0
aF1513461642.0
aF1513462603.0
aF1513493590.0
aF1513507044.0
aF1513509771.0
aF1513525865.0
aF1513525924.0
aF1513541445.0
aF1513544402.0
aF1513550865.0
aF1513551669.0
aF1513553435.0
aF1513563257.0
aF1513566326.0
aF1513567335.0
aF1513568203.0
aF1513587675.0
aF1513644174.0
aF1513651579.0
aF1513662168.0
aF1513664363.0
aF1513666051.0
aF1513719854.0
aF1513726742.0
aF1513727959.0
aF1513779687.0
aF1513795324.0
aF1513795739.0
aF1513809799.0
aF1513823564.0
aF1513824031.0
aF1513825233.0
aF1513827525.0
aF1513828567.0
aF1513852402.0
aF1513853717.0
aF1513869642.0
aF1513877568.0
aF1513880639.0
aF1513912893.0
aF1513914212.0
aF1513959309.0
aF1513961857.0
aF1513963488.0
aF1513976556.0
aF1513998889.0
aF1514002402.0
aF1514017195.0
aF1514020933.0
aF1514043268.0
aF1514054753.0
aF1514057714.0
aF1514072503.0
aF1514083802.0
aF1514138064.0
aF1514146710.0
aF1514159675.0
aF1514220337.0
aF1514233435.0
aF1514235135.0
aF1514242049.0
aF1514249183.0
aF1514249386.0
aF1514250076.0
aF1514250910.0
aF1514296025.0
aF1514316512.0
aF1514320311.0
aF1514329047.0
aF1514333240.0
aF1514334182.0
aF1514346186.0
aF1514348341.0
aF1514378686.0
aF1514388354.0
aF1514402090.0
aF1514485405.0
aF1514486629.0
aF1514487772.0
aF1514487939.0
aF1514494803.0
aF1514531839.0
aF1514571770.0
aF1514599198.0
aF1514627303.0
aF1514645106.0
aF1514664636.0
aF1514665524.0
aF1514742583.0
aF1514745982.0
aF1514841466.0
aF1514857781.0
aF1514859494.0
aF1514873279.0
aF1514879059.0
aF1514902953.0
aF1514904294.0
aF1514906502.0
aF1514907668.0
aF1514923215.0
aF1514927955.0
aF1515096103.0
aF1515105928.0
aF1515147640.0
aF1515564999.0
aF1515589113.0
aF1515592671.0
aF1515595058.0
aF1515597068.0
aF1515605000.0
aF1515645459.0
aF1515652341.0
aF1515654902.0
aF1516052180.0
aF1516058748.0
aF1516060302.0
aF1516085020.0
aF1516087083.0
aF1516091941.0
aF1516137545.0
aF1516138403.0
aF1516164323.0
aF1516197089.0
aF1516202593.0
aF1516207766.0
aF1516250528.0
aF1516280013.0
aF1516281863.0
aF1516286353.0
aF1516363247.0
aF1516366426.0
aF1516379842.0
aF1516386947.0
aF1516405673.0
aF1516409582.0
aF1516463802.0
aF1516471521.0
aF1516482507.0
aF1516516429.0
aF1516528256.0
aF1516551805.0
aF1516560786.0
aF1516566652.0
aF1516588495.0
aF1516642639.0
aF1516672928.0
aF1516717007.0
aF1516720975.0
aF1516726153.0
aF1516745510.0
aF1516746422.0
aF1516750687.0
aF1516750774.0
aF1516793522.0
aF1517117372.0
aF1517122130.0
aF1517196291.0
aF1517202662.0
aF1517230518.0
aF1517287957.0
aF1517293299.0
aF1517293874.0
aF1517311282.0
aF1517325710.0
aF1517332484.0
aF1517503079.0
aF1517516579.0
aF1517550027.0
aF1517601424.0
aF1517632312.0
aF1517636260.0
aF1517636502.0
aF1517705514.0
aF1517718669.0
aF1517758983.0
aF1517763569.0
aF1517799113.0
aF1517827253.0
aF1517886533.0
a.(lp0
F1516523051.0
aF1516525775.0
aF1516528543.0
aF1516530341.0
aF1516547513.0
aF1516561294.0
aF1516567510.0
aF1516574251.0
aF1516581472.0
aF1516584959.0
aF1516647190.0
aF1516677776.0
aF1516744163.0
aF1516752774.0
aF1516841418.0
aF1516865557.0
aF1516875953.0
aF1516885118.0
aF1516889717.0
aF1516906396.0
aF1517408722.0
aF1517791179.0
aF1517797508.0
aF1517869613.0
aF1517897525.0
aF1517908299.0
aF1517909197.0
aF1517911309.0
aF1517972058.0
aF-690938095.0
a.(lp0
F1514090252.0
aF1514093182.0
aF1514093342.0
aF1514093835.0
aF1514100314.0
aF1514103361.0
aF1514122626.0
aF1514122949.0
aF1514127477.0
aF1514131954.0
aF1514149023.0
aF1514149231.0
aF1514150910.0
aF1514153043.0
aF1514154483.0
aF1514158974.0
aF1514159269.0
aF1514176073.0
aF1514178936.0
aF1514202273.0
aF1514206372.0
aF1514216739.0
aF1514216933.0
aF1514221330.0
aF1514223957.0
aF1514229008.0
aF1514231558.0
aF1514233318.0
aF1514238262.0
aF1514239731.0
aF1514245746.0
aF1514247888.0
aF1514247964.0
aF1514250804.0
aF1514272391.0
aF1514280032.0
aF1514297867.0
aF1514300571.0
aF1514301722.0
aF1514302384.0
aF1514303323.0
aF1514306994.0
aF1514307356.0
aF1514332475.0
aF1514333713.0
aF1514334558.0
aF1514337204.0
aF1514350708.0
aF1514351546.0
aF1514355354.0
aF1514355606.0
aF1514357162.0
aF1514379922.0
aF1514388315.0
aF1514390232.0
aF1514390682.0
aF1514401745.0
aF1514409453.0
aF1514412892.0
aF1514415793.0
aF1514417564.0
aF1514418111.0
aF1514418192.0
aF1514432403.0
aF1514454041.0
aF1514454582.0
aF1514454631.0
aF1514474601.0
aF1514484342.0
aF1514488719.0
aF1514491406.0
aF1514549161.0
aF1514558518.0
aF1514575115.0
aF1514577085.0
aF1514588483.0
aF1514593053.0
aF1514593392.0
aF1514594985.0
aF1514602122.0
aF1515279601.0
aF1515282418.0
aF1515301908.0
aF1515309924.0
aF1515324552.0
aF1515532359.0
aF1515563543.0
aF1515567503.0
aF1515570353.0
aF1515595184.0
aF1515598301.0
aF1515598339.0
aF1515601708.0
aF1515607550.0
aF1515612646.0
aF1515848899.0
aF1515858062.0
aF1515860937.0
aF1515864195.0
aF1515882161.0
aF1516292228.0
aF1516295536.0
aF1516296193.0
aF1516297216.0
aF1516298088.0
aF1516303093.0
aF1516309187.0
aF1516314845.0
aF1516317541.0
aF1516318573.0
aF1516320169.0
aF1516324300.0
aF1516325203.0
aF1516329898.0
aF1516330021.0
aF1516339902.0
aF1516358626.0
aF1516365167.0
aF1516365980.0
aF1516366481.0
aF1516940957.0
aF1516947233.0
aF1516959212.0
aF1517030406.0
aF1517065786.0
aF1517279712.0
aF1517361763.0
aF1517369395.0
aF1517391359.0
aF1517391723.0
aF1517410291.0
aF1517464786.0
aF1517473701.0
aF1517478706.0
aF1517513893.0
aF1517533349.0
aF1517550753.0
aF1517557239.0
aF1517559768.0
aF1517653131.0
a.(lp0
F1516923874.0
aF1516946891.0
aF1516947979.0
aF1516989333.0
aF1517010621.0
aF1517015376.0
aF1517031789.0
aF1517038219.0
aF1517068671.0
aF1517075196.0
aF1517077359.0
aF1517079404.0
aF1517080100.0
aF1517110728.0
aF1517180023.0
aF1517182861.0
aF1517205378.0
aF1517208902.0
aF1517226855.0
aF1517280035.0
aF1517311227.0
aF1517340610.0
aF1517367248.0
aF1517411161.0
aF1517428493.0
aF1517498849.0
aF1517662350.0
aF1517664798.0
aF1517676087.0
aF1517682505.0
aF1517695684.0
aF1517712515.0
aF1517850698.0
aF1517926653.0
aF-690924754.0
aF-690922533.0
aF-690922368.0
aF-690919285.0
aF1517311227.0
aF1517340610.0
aF1517367248.0
aF1517411161.0
aF1517428493.0
aF1517498849.0
aF1517662350.0
aF1517664798.0
aF1517676087.0
aF1517682505.0
aF1517695684.0
aF1517712515.0
aF1517850698.0
aF1517926653.0
aF-690924754.0
aF-690922533.0
aF-690922368.0
aF-690919285.0
a.(lp0
F1517003166.0
aF1517009815.0
aF1517010512.0
aF1517017877.0
aF1517017886.0
aF1517018329.0
aF1517018441.0
aF1517032637.0
aF1517038586.0
aF1517044381.0
aF1517044710.0
aF1517045160.0
aF1517048711.0
aF1517049273.0
aF1517050730.0
aF1517051132.0
aF1517053509.0
aF1517058285.0
aF1517077576.0
aF1517078929.0
aF1517106397.0
aF1517116197.0
aF1517127489.0
aF1517133471.0
aF1517135122.0
aF1517141124.0
aF1517141268.0
aF1517145865.0
aF1517146959.0
aF1517147397.0
aF1517148079.0
aF1517148489.0
aF1517149653.0
aF1517154026.0
aF1517161000.0
aF1517162499.0
aF1517166260.0
aF1517167837.0
aF1517172486.0
aF1517178261.0
aF1517178769.0
aF1517182460.0
aF1517184273.0
aF1517211840.0
aF1517213254.0
aF1517218747.0
aF1517220455.0
aF1517223389.0
aF1517224783.0
aF1517224888.0
aF1517229395.0
aF1517232565.0
aF1517236521.0
aF1517257788.0
aF1517260194.0
aF1517260987.0
aF1517265369.0
aF1517266693.0
aF1517268836.0
aF1517276188.0
aF1517303172.0
aF1517306033.0
aF1517306177.0
aF1517310941.0
aF1517327501.0
aF1517329797.0
aF1517334464.0
aF1517336062.0
aF1517337747.0
aF1517347763.0
aF1517348039.0
aF1517349161.0
aF1517351888.0
aF1517355679.0
aF1517357295.0
aF1517359773.0
aF1517365114.0
aF1517366639.0
aF1517368264.0
aF1517372014.0
aF1517372249.0
aF1517373519.0
aF1517392384.0
aF1517397974.0
aF1517411331.0
aF1517411385.0
aF1517417503.0
aF1517430915.0
aF1517431409.0
aF1517434598.0
aF1517449102.0
aF1517454680.0
aF1517455353.0
aF1517461245.0
aF1517480056.0
aF1517487074.0
aF1517522541.0
aF1517524859.0
aF1517529762.0
aF1517538993.0
aF1517106397.0
aF1517116197.0
aF1517127489.0
aF1517133471.0
aF1517135122.0
aF1517141124.0
aF1517141268.0
aF1517145865.0
aF1517146959.0
aF1517147397.0
aF1517148079.0
aF1517148489.0
aF1517149653.0
aF1517154026.0
aF1517161000.0
aF1517162499.0
aF1517166260.0
aF1517167837.0
aF1517172486.0
aF1517178261.0
a.(lp0
F1478834125.0
aF1478846910.0
aF1478847143.0
aF1478847823.0
aF1478848373.0
aF1478856866.0
aF1478858853.0
aF1478859960.0
aF1478860736.0
aF1478864919.0
aF1478866124.0
aF1478866126.0
aF1478870073.0
aF1478870382.0
aF1478875738.0
aF1478876708.0
aF1478876985.0
aF1478877237.0
aF1478877560.0
aF1478880422.0
aF1478882176.0
aF1478882357.0
aF1478884769.0
aF1478888275.0
aF1478889014.0
aF1478889371.0
aF1478900870.0
aF1478909874.0
aF1478933060.0
aF1478936419.0
aF1478936629.0
aF1478937964.0
aF1478940580.0
aF1478949954.0
aF1478950404.0
aF1478951356.0
aF1478958578.0
aF1478965750.0
aF1478966745.0
aF1478973630.0
aF1478977634.0
aF1478980886.0
aF1478982032.0
aF1478982586.0
aF1478982962.0
aF1478983676.0
aF1478986203.0
aF1478986842.0
aF1478986873.0
aF1478992227.0
aF1478994336.0
aF1478996438.0
aF1479007836.0
aF1479010535.0
aF1479047662.0
aF1479050029.0
aF1479061358.0
aF1479071685.0
aF1479076782.0
aF1479077128.0
aF1479078402.0
aF1479091162.0
aF1479091699.0
aF1479095254.0
aF1479099927.0
aF1479100259.0
aF1479100759.0
aF1479107852.0
aF1479109556.0
aF1479110155.0
aF1479110788.0
aF1479112976.0
aF1479113287.0
aF1479113911.0
aF1479114197.0
aF1479120737.0
aF1479128175.0
aF1479128813.0
aF1479130241.0
aF1479131327.0
aF1479135099.0
aF1479135339.0
aF1479142038.0
aF1479143493.0
aF1479143768.0
aF1479158896.0
aF1479165501.0
aF1479167204.0
aF1479212197.0
aF1479231662.0
aF1479232034.0
aF1479238319.0
aF1479238402.0
aF1479238990.0
aF1479239463.0
aF1479239795.0
aF1479241526.0
aF1479251663.0
aF1479253761.0
aF1479253821.0
aF1479253988.0
aF1479254879.0
aF1479255008.0
aF1479258543.0
aF1479259138.0
aF1479291529.0
aF1479303265.0
aF1479332716.0
aF1479341220.0
aF1479346617.0
aF1479348250.0
aF1479372521.0
aF1479372642.0
aF1479384458.0
aF1479388574.0
aF1479399757.0
aF1479427324.0
aF1479428191.0
aF1479443903.0
aF1479464608.0
aF1479743136.0
aF1479751463.0
aF1479754073.0
aF1479765956.0
aF1479766415.0
aF1479767180.0
aF1479767859.0
aF1479767975.0
aF1479770036.0
aF1479770496.0
aF1479771309.0
aF1479772516.0
aF1479775621.0
aF1479778753.0
aF1479840796.0
aF1479849204.0
aF1479850414.0
aF1479851060.0
aF1479852133.0
aF1479872218.0
aF1479982902.0
aF1479983246.0
aF1479987707.0
aF1480013472.0
aF1480015454.0
aF1480017068.0
aF1480021180.0
aF1480022632.0
aF1480023021.0
aF1480033466.0
aF1480036732.0
aF1480043851.0
aF1480052118.0
aF1480057122.0
aF1480057479.0
aF1480066531.0
aF1480069100.0
aF1480069483.0
aF1480080488.0
aF1480092189.0
aF1480381524.0
aF1480386575.0
aF1480399168.0
aF1480399598.0
aF1480408786.0
aF1480409426.0
aF1480450896.0
aF1480451696.0
aF1480453097.0
aF1480455668.0
aF1480456237.0
aF1480507341.0
aF1480508461.0
aF1480536075.0
aF1480536926.0
aF1480540031.0
aF1480540495.0
aF1480546700.0
aF1480569703.0
aF1480578580.0
aF1480606429.0
aF1480640684.0
aF1480644447.0
aF1480653946.0
aF1480676454.0
aF1480684791.0
aF1480686801.0
aF1480701459.0
aF1480817234.0
aF1480836775.0
aF1480870696.0
aF1480885828.0
aF1480889937.0
aF1480904684.0
aF1480928670.0
aF1480934439.0
aF1480936068.0
aF1480946370.0
aF1480963873.0
aF1480978421.0
aF1481503590.0
aF1481508335.0
aF1481509133.0
aF1481509382.0
aF1481541892.0
aF1481560994.0
aF1481564281.0
aF1481576585.0
aF1481577756.0
aF1481578987.0
aF1481587883.0
aF1481593360.0
aF1481664233.0
aF1481673336.0
aF1481677155.0
aF1481683836.0
aF1481746279.0
aF1481752105.0
aF1481752823.0
aF1481763950.0
aF1481765221.0
aF1481769128.0
aF1481773502.0
aF1481782832.0
aF1481811071.0
aF1481813439.0
aF1481840792.0
aF1481841162.0
aF1481841317.0
aF1481843277.0
aF1481851737.0
aF1481858615.0
aF1481858733.0
aF1481886459.0
aF1481918599.0
aF1481919648.0
aF1481939003.0
aF1481946220.0
aF1481996521.0
aF1481999966.0
aF1482285885.0
aF1482296672.0
aF1482296981.0
aF1482297943.0
aF1482307034.0
aF1482318689.0
aF1482369824.0
aF1482376515.0
aF1482405350.0
aF1482411099.0
aF1482412779.0
aF1482437001.0
aF1482438293.0
aF1482442989.0
aF1482468294.0
aF1482475883.0
aF1482477411.0
aF1482482805.0
aF1482484095.0
aF1482500033.0
aF1483000717.0
aF1483020317.0
aF1483095054.0
aF1483134960.0
aF1483139145.0
aF1483144329.0
aF1483150257.0
aF1483213408.0
aF1483213786.0
aF1483216376.0
aF1483216930.0
aF1483326377.0
aF1483327230.0
aF1483327945.0
aF1483371152.0
aF1483372742.0
aF1483388009.0
aF1483432765.0
aF1483459883.0
aF1483463886.0
aF1483697756.0
aF1483709899.0
aF1483718190.0
aF1483736775.0
aF1483748313.0
aF1483807186.0
aF1483808584.0
aF1483809426.0
aF1483809620.0
aF1483809963.0
aF1483813645.0
aF1483818934.0
aF1483820249.0
aF1483881205.0
aF1483886539.0
aF1483889036.0
aF1483921061.0
aF1483930604.0
aF1483939063.0
aF1483974763.0
aF1484194294.0
aF1484205401.0
aF1484206751.0
aF1484209173.0
aF1484209729.0
aF1484220084.0
aF1484221025.0
aF1484231125.0
aF1484232425.0
aF1484247995.0
aF1484258023.0
aF1484287220.0
aF1484288363.0
aF1484291254.0
aF1484314791.0
aF1484318503.0
aF1484318729.0
aF1484321681.0
aF1484348180.0
aF1484372019.0
aF1484684204.0
aF1484690345.0
aF1484696778.0
aF1484730425.0
aF1484733062.0
aF1484748126.0
aF1484748193.0
aF1484766159.0
aF1484767767.0
aF1484782616.0
aF1484786359.0
aF1484809728.0
aF1484818480.0
aF1484821397.0
aF1484822001.0
aF1484822380.0
aF1484824326.0
aF1484863309.0
aF1484865240.0
aF1484869005.0
aF1485197217.0
aF1485198457.0
aF1485202248.0
aF1485206469.0
aF1485221614.0
aF1485230029.0
aF1485241376.0
aF1485263102.0
aF1485265235.0
aF1485266497.0
aF1485267364.0
aF1485273374.0
aF1485278261.0
aF1485278832.0
aF1485288152.0
aF1485294839.0
aF1485386365.0
aF1485396502.0
aF1485451176.0
aF1485451552.0
aF1486220101.0
aF1486258089.0
aF1486341606.0
aF1486342535.0
aF1486353502.0
aF1486360315.0
aF1486365998.0
aF1486386539.0
aF1486404620.0
aF1486408463.0
aF1486409863.0
aF1486413713.0
aF1486442864.0
aF1486511935.0
aF1486534751.0
aF1486543785.0
aF1486562284.0
aF1486565063.0
aF1486571550.0
aF1486597282.0
aF1486818367.0
aF1486820078.0
aF1486820953.0
aF1486823944.0
aF1486824449.0
aF1486825291.0
aF1486910144.0
aF1486929843.0
aF1486930358.0
aF1486930590.0
aF1486983369.0
aF1486988324.0
aF1487004040.0
aF1487020366.0
aF1487021054.0
aF1487042159.0
aF1487050549.0
aF1487053338.0
aF1487067303.0
aF1487092124.0
aF1487614661.0
aF1487619884.0
aF1487627757.0
aF1487631249.0
aF1487631326.0
aF1487634167.0
aF1487673386.0
aF1487691610.0
aF1487725282.0
aF1487725745.0
aF1487733048.0
aF1487757266.0
aF1487757889.0
aF1487762776.0
aF1487767940.0
aF1487770169.0
aF1487771902.0
aF1487775342.0
aF1487824158.0
aF1487832303.0
aF1488775460.0
aF1488850940.0
aF1488916102.0
aF1488958066.0
aF1488959702.0
aF1488967264.0
aF1488967941.0
aF1488968003.0
aF1488968307.0
aF1489041055.0
aF1489056929.0
aF1489057046.0
aF1489060382.0
aF1489099514.0
aF1489106388.0
aF1489108712.0
aF1489149988.0
aF1489158316.0
aF1489166611.0
aF1489178960.0
aF1489179185.0
aF1489186336.0
aF1489186658.0
aF1489198470.0
aF1489200501.0
aF1489219771.0
aF1489236099.0
aF1489237098.0
aF1489364527.0
aF1489448953.0
aF1489466783.0
aF1489528640.0
aF1489564907.0
aF1489565232.0
aF1489571844.0
aF1489572085.0
aF1489612877.0
aF1489615783.0
aF1489616342.0
aF1489617113.0
aF1489648560.0
aF1489666754.0
aF1489669567.0
aF1489684955.0
aF1489726627.0
aF1489742645.0
aF1489761758.0
aF1489763321.0
aF1489769430.0
aF1489783290.0
aF1489789169.0
aF1489795250.0
aF1489797641.0
aF1489798785.0
aF1489809106.0
aF1489809925.0
aF1489848190.0
aF1489856521.0
aF1489864485.0
aF1489871199.0
aF1490504115.0
aF1490515056.0
aF1490559905.0
aF1490561446.0
aF1490563480.0
aF1490567449.0
aF1490567859.0
aF1490569772.0
aF1490583670.0
aF1490598003.0
aF1490600560.0
aF1490602508.0
aF1490604795.0
aF1490605329.0
aF1490606674.0
aF1490609740.0
aF1490611054.0
aF1490614991.0
aF1490617419.0
aF1490628048.0
aF1490901867.0
aF1490919201.0
aF1490920139.0
aF1490922471.0
aF1490928046.0
aF1490935276.0
aF1490940438.0
aF1490943419.0
aF1490950539.0
aF1490952297.0
aF1490962133.0
aF1490969727.0
aF1490977690.0
aF1490985627.0
aF1490985801.0
aF1491000552.0
aF1491050254.0
aF1491052153.0
aF1491060770.0
aF1491061263.0
aF1491246820.0
aF1491261719.0
aF1491261920.0
aF1491275893.0
aF1491285555.0
aF1491287386.0
aF1491288567.0
aF1491290184.0
aF1491294992.0
aF1491302292.0
aF1491303138.0
aF1491304430.0
aF1491328638.0
aF1491340267.0
aF1491346536.0
aF1491367973.0
aF1491376164.0
aF1491396726.0
aF1491426176.0
aF1491431801.0
aF1491686086.0
aF1491688952.0
aF1491689201.0
aF1491693133.0
aF1491707849.0
aF1491724793.0
aF1491729166.0
aF1491745699.0
aF1491762293.0
aF1491762751.0
aF1491762936.0
aF1491774797.0
aF1491775128.0
aF1491776131.0
aF1491781477.0
aF1491793442.0
aF1491804980.0
aF1491816633.0
aF1491817868.0
aF1491822627.0
aF1478882176.0
aF1478882357.0
aF1478884769.0
aF1478888275.0
aF1478889014.0
aF1478889371.0
aF1478900870.0
aF1478909874.0
aF1478933060.0
aF1478936419.0
aF1478936629.0
aF1478937964.0
aF1478940580.0
aF1478949954.0
aF1478950404.0
aF1478951356.0
aF1478958578.0
aF1478965750.0
aF1478966745.0
aF1478973630.0
a.(lp0
F1517434042.0
aF1517450887.0
aF1517451728.0
aF1517453641.0
aF1517503423.0
aF1517553927.0
aF1517554208.0
aF1517554696.0
aF1517560861.0
aF1517565557.0
aF1517565798.0
a.(lp0
F1510415987.0
aF1510421123.0
aF1510423077.0
aF1510423543.0
aF1510425086.0
aF1510425940.0
aF1510431112.0
aF1510434005.0
aF1510441014.0
aF1510460019.0
aF1510464966.0
aF1510472838.0
aF1510472905.0
aF1510481320.0
aF1510485917.0
aF1510486551.0
aF1510488368.0
aF1510526470.0
aF1510528351.0
aF1510535253.0
aF1510536636.0
aF1510541335.0
aF1510543570.0
aF1510544687.0
aF1510549265.0
aF1510550902.0
aF1510558251.0
aF1510559017.0
aF1510560322.0
aF1510569551.0
aF1510569697.0
aF1510611920.0
aF1510625768.0
aF1510626058.0
aF1510630832.0
aF1510644360.0
aF1510681096.0
aF1510690253.0
aF1510691122.0
aF1510695135.0
aF1510705888.0
aF1510789765.0
aF1510791962.0
aF1510792209.0
aF1510844757.0
aF1510886332.0
aF1510897509.0
aF1511042544.0
aF1511060010.0
aF1511072624.0
aF1511081593.0
aF1511087340.0
aF1511091186.0
aF1511091496.0
aF1511106272.0
aF1511127154.0
aF1511195592.0
aF1511211605.0
aF1511214986.0
aF1511216250.0
aF1511219018.0
aF1511220197.0
aF1511243341.0
aF1511264765.0
aF1511270732.0
aF1511291468.0
aF1511304062.0
aF1511306524.0
aF1511309644.0
aF1511311961.0
aF1511312433.0
aF1511321234.0
aF1511322805.0
aF1511364272.0
aF1511367131.0
aF1511370416.0
aF1511381527.0
aF1511383021.0
aF1511384740.0
aF1511420222.0
aF1511461899.0
aF1511475329.0
aF1511475981.0
aF1511482290.0
aF1511486825.0
aF1511496953.0
aF1511499214.0
aF1511618883.0
aF1511621753.0
aF1511651495.0
aF1511657212.0
aF1511662004.0
aF1511750034.0
aF1512199768.0
aF1512203881.0
aF1512210294.0
aF1512332287.0
aF1512336783.0
aF1512359325.0
aF1512361213.0
aF1512381142.0
aF1512385012.0
aF1512443159.0
aF1512456867.0
aF1512459570.0
aF1512464155.0
aF1512467315.0
aF1512469019.0
aF1512469447.0
aF1512471034.0
aF1512488703.0
aF1512491667.0
aF1512542605.0
aF1512550387.0
aF1512551502.0
aF1512554165.0
aF1512558466.0
aF1512561261.0
aF1512564099.0
aF1512583938.0
aF1512589303.0
aF1512590122.0
aF1512591167.0
aF1512758073.0
aF1512759015.0
aF1512759231.0
aF1512829980.0
aF1512844562.0
aF1512844831.0
aF1512851919.0
aF1512852551.0
aF1512857091.0
aF1512923086.0
aF1512980440.0
aF1512980592.0
aF1513029131.0
aF1513029936.0
aF1513037701.0
aF1513064609.0
aF1513274130.0
aF1513410193.0
aF1513470668.0
aF1513494261.0
aF1513495271.0
aF1513527935.0
aF1513556500.0
aF1513584557.0
aF1513585074.0
aF1513604050.0
aF1513644015.0
aF1513664046.0
aF1513673153.0
aF1513710983.0
aF1513719033.0
aF1513723384.0
aF1513731519.0
aF1513733813.0
aF1513747768.0
aF1513748902.0
aF1513753362.0
aF1513771940.0
aF1513800016.0
aF1513842702.0
aF1513863818.0
aF1513893036.0
aF1514043767.0
aF1514057434.0
aF1514061917.0
aF1514121136.0
aF1514122574.0
aF1514241478.0
aF1514316535.0
aF1514326620.0
aF1514368018.0
aF1514388946.0
aF1514572282.0
aF1514597192.0
aF1514615347.0
aF1514620067.0
aF1514620404.0
aF1514627454.0
aF1514671374.0
aF1514700447.0
aF1514715504.0
aF1515105952.0
aF1515107807.0
aF1515156160.0
aF1515163043.0
aF1515163434.0
aF1515166959.0
aF1516699127.0
aF1516703807.0
aF1516706759.0
aF1516752994.0
aF1516753966.0
aF1516754087.0
aF1516784645.0
aF1516792766.0
aF1517070477.0
aF1517080263.0
aF1517096014.0
aF1517096452.0
aF1517113451.0
aF1517115136.0
aF1517192048.0
aF1517460357.0
aF1517498694.0
aF1517507983.0
aF1517515537.0
aF1517601517.0
aF1510536636.0
aF1510541335.0
aF1510543570.0
aF1510544687.0
aF1510549265.0
aF1510550902.0
aF1510558251.0
aF1510559017.0
aF1510560322.0
aF1510569551.0
aF1510569697.0
aF1510611920.0
aF1510625768.0
aF1510626058.0
aF1510630832.0
aF1510644360.0
aF1510681096.0
aF1510690253.0
aF1510691122.0
aF1510695135.0
a.(lp0
F1517607980.0
aF1517616495.0
aF1517620048.0
a.(lp0
F1517515332.0
aF1517520059.0
aF1517520121.0
aF1517520150.0
aF1517608270.0
aF1517617361.0
aF1517633078.0
a.(lp0
F1517191286.0
aF1517194074.0
aF1517522835.0
aF1517523393.0
aF1517524939.0
aF1517525386.0
aF1517550895.0
aF1517554442.0
aF1517638755.0
a.(lp0
F1517539085.0
aF1517553482.0
aF1517595284.0
aF1517647917.0
a.(lp0
F1517080149.0
aF1517080443.0
aF1517130077.0
aF1517132115.0
aF1517132551.0
aF1517134562.0
aF1517145462.0
aF1517200862.0
aF1517273924.0
aF1517275220.0
aF1517276072.0
aF1517278577.0
aF1517282616.0
aF1517292607.0
aF1517293895.0
aF1517410090.0
aF1517418338.0
aF1517419277.0
aF1517445859.0
aF1517446692.0
aF1517488167.0
aF1517620898.0
aF1517648608.0
aF1517488167.0
aF1517620898.0
aF1517648608.0
a.(lp0
F1512061229.0
aF1512080879.0
aF1512081132.0
aF1512082797.0
aF1512090565.0
aF1512091863.0
aF1512094750.0
aF1512096159.0
aF1512097146.0
aF1512097521.0
aF1512099454.0
aF1512109228.0
aF1512112506.0
aF1512117711.0
aF1512121419.0
aF1512124362.0
aF1512124650.0
aF1512128207.0
aF1512131245.0
aF1512135841.0
aF1512136384.0
aF1512139663.0
aF1512139878.0
aF1512142411.0
aF1512148802.0
aF1512155140.0
aF1512166381.0
aF1512176454.0
aF1512201982.0
aF1512211981.0
aF1512231575.0
aF1512232903.0
aF1512233947.0
aF1512235411.0
aF1512252037.0
aF1512351092.0
aF1512353029.0
aF1512368533.0
aF1512375845.0
aF1512377183.0
aF1512385025.0
aF1512390423.0
aF1512402903.0
aF1512403474.0
aF1512426966.0
aF1512427241.0
aF1512445013.0
aF1512447716.0
aF1512457107.0
aF1512499200.0
aF1512500981.0
aF1512503756.0
aF1512513086.0
aF1512513891.0
aF1512545137.0
aF1512579658.0
aF1512602741.0
aF1512603448.0
aF1512606544.0
aF1512609254.0
aF1512611175.0
aF1512614923.0
aF1512629406.0
aF1512664786.0
aF1512682436.0
aF1512683311.0
aF1512704063.0
aF1512706061.0
aF1512723183.0
aF1512754502.0
aF1512758226.0
aF1512781542.0
aF1512783475.0
aF1512786351.0
aF1512787928.0
aF1512791894.0
aF1512839512.0
aF1512841091.0
aF1512844759.0
aF1512845491.0
aF1512846468.0
aF1512851592.0
aF1512853495.0
aF1512897961.0
aF1512921874.0
aF1512932342.0
aF1512947898.0
aF1512950296.0
aF1512957201.0
aF1512970930.0
aF1512972750.0
aF1512975088.0
aF1512975704.0
aF1513005811.0
aF1513011177.0
aF1513025250.0
aF1513025825.0
aF1513032473.0
aF1513034212.0
aF1513040559.0
aF1513043188.0
aF1513088004.0
aF1513090814.0
aF1513094754.0
aF1513125074.0
aF1513189615.0
aF1513206562.0
aF1513222498.0
aF1513262140.0
aF1513263944.0
aF1513277064.0
aF1513277152.0
aF1513279675.0
aF1513279925.0
aF1513280159.0
aF1513287659.0
aF1513297201.0
aF1513298306.0
aF1513372141.0
aF1513374320.0
aF1513399209.0
aF1514169128.0
aF1514199345.0
aF1514207180.0
aF1514212537.0
aF1514236619.0
aF1514498673.0
aF1514513157.0
aF1514529748.0
aF1514532732.0
aF1514533700.0
aF1514540563.0
aF1514596891.0
aF1514648074.0
aF1514692383.0
aF1514692843.0
aF1514697145.0
aF1514985641.0
aF1514986866.0
aF1514988378.0
aF1514990716.0
aF1515243426.0
aF1515274938.0
aF1515999848.0
aF1516543780.0
aF1516575285.0
aF1516597882.0
aF1516597962.0
aF1516599872.0
aF1516640784.0
aF1516642111.0
aF1516653334.0
aF1516739589.0
aF1516739852.0
aF1516740909.0
aF1516745508.0
aF1516745932.0
aF1516800656.0
aF1516935731.0
aF1516952350.0
aF1517015308.0
aF1517280219.0
aF1517282427.0
aF1517305657.0
aF1517331918.0
aF1517336695.0
aF1517336971.0
aF1517352142.0
aF1517356828.0
aF1517395900.0
aF1517412250.0
aF1517496839.0
aF1517498323.0
aF1517505963.0
aF1517519173.0
aF1517547999.0
aF1517648322.0
aF1517651644.0
aF1517653080.0
aF1517656546.0
a.(lp0
F1405347680.0
aF1405351113.0
aF1405351502.0
aF1405351592.0
aF1405351902.0
aF1405351934.0
aF1405352183.0
aF1405352833.0
aF1405353415.0
aF1405354279.0
aF1405364759.0
aF1405365091.0
aF1405366857.0
aF1405458269.0
aF1405458612.0
aF1405459710.0
aF1405469128.0
aF1405474274.0
aF1517699387.0
a.(lp0
F1515441517.0
aF1515441683.0
aF1515455371.0
aF1515510520.0
aF1515541382.0
aF1515879728.0
aF1515881466.0
aF1515963633.0
aF1516045151.0
aF1517403571.0
aF1517403676.0
aF1517480418.0
aF1517487747.0
aF1517717186.0
a.(lp0
F1517255817.0
aF1517648797.0
aF1517718578.0
a.(lp0
F1491893734.0
aF1491898046.0
aF1491899313.0
aF1491907971.0
aF1491908246.0
aF1491911103.0
aF1491912385.0
aF1491915213.0
aF1491921883.0
aF1491936289.0
aF1491936477.0
aF1491941852.0
aF1491944223.0
aF1491947570.0
aF1491948868.0
aF1491950877.0
aF1491959164.0
aF1491959492.0
aF1491962404.0
aF1491965189.0
aF1491966974.0
aF1492012438.0
aF1492014384.0
aF1492015598.0
aF1492028852.0
aF1492031882.0
aF1492034424.0
aF1492049130.0
aF1492072929.0
aF1492078259.0
aF1492079289.0
aF1492087683.0
aF1492094770.0
aF1492103931.0
aF1492129074.0
aF1492152746.0
aF1492159557.0
aF1492160337.0
aF1492186586.0
aF1492190168.0
aF1492197374.0
aF1492216082.0
aF1492253457.0
aF1492268568.0
aF1492278401.0
aF1492283930.0
aF1492284028.0
aF1492284315.0
aF1492285498.0
aF1492434164.0
aF1492436313.0
aF1492457077.0
aF1492462905.0
aF1492508969.0
aF1492512240.0
aF1492514614.0
aF1492518825.0
aF1492523593.0
aF1492542993.0
aF1492543415.0
aF1492545664.0
aF1492546292.0
aF1492564794.0
aF1492571129.0
aF1492594068.0
aF1492689029.0
aF1492689777.0
aF1492779850.0
aF1492784111.0
aF1492825367.0
aF1492921839.0
aF1492928987.0
aF1492929630.0
aF1492946396.0
aF1492946763.0
aF1492965622.0
aF1492966013.0
aF1492973132.0
aF1492984175.0
aF1492984581.0
aF1493075031.0
aF1493095852.0
aF1493165538.0
aF1493201009.0
aF1493238797.0
aF1493255745.0
aF1493258069.0
aF1493260590.0
aF1493261487.0
aF1493271780.0
aF1493276250.0
aF1493281843.0
aF1493285531.0
aF1493287091.0
aF1493287686.0
aF1493290620.0
aF1493294629.0
aF1493294762.0
aF1493344375.0
aF1493344719.0
aF1493347829.0
aF1493353577.0
aF1493430479.0
aF1493430833.0
aF1493448487.0
aF1493483872.0
aF1493509001.0
aF1493520075.0
aF1493527563.0
aF1493557476.0
aF1493561949.0
aF1493695937.0
aF1493698311.0
aF1493708224.0
aF1493853078.0
aF1493867082.0
aF1493867841.0
aF1493872941.0
aF1493875223.0
aF1493880099.0
aF1493899063.0
aF1493928449.0
aF1494171925.0
aF1494194433.0
aF1494199599.0
aF1494268120.0
aF1494277416.0
aF1494281461.0
aF1494287847.0
aF1494289021.0
aF1494292691.0
aF1494301641.0
aF1494301830.0
aF1494302983.0
aF1494304025.0
aF1494358886.0
aF1494366585.0
aF1494374284.0
aF1494375090.0
aF1494390795.0
aF1494393649.0
aF1494431589.0
aF1494433590.0
aF1494480114.0
aF1494480374.0
aF1494480925.0
aF1494482764.0
aF1494490353.0
aF1494507299.0
aF1494549500.0
aF1494558805.0
aF1494575938.0
aF1494580718.0
aF1494599494.0
aF1494606735.0
aF1494610650.0
aF1494612041.0
aF1494616646.0
aF1494639404.0
aF1494640893.0
aF1494645370.0
aF1494655435.0
aF1494688746.0
aF1494711574.0
aF1494717677.0
aF1494719626.0
aF1494719823.0
aF1494782426.0
aF1494788429.0
aF1494791212.0
aF1494800595.0
aF1494801480.0
aF1494859576.0
aF1494864111.0
aF1494889841.0
aF1494890700.0
aF1494941279.0
aF1494942230.0
aF1494942631.0
aF1494943150.0
aF1494945783.0
aF1494946249.0
aF1494974307.0
aF1494983445.0
aF1494992087.0
aF1494996116.0
aF1495022386.0
aF1495022999.0
aF1495027658.0
aF1495035800.0
aF1495056628.0
aF1495058388.0
aF1495125742.0
aF1495192531.0
aF1495236014.0
aF1495237537.0
aF1495238824.0
aF1495250983.0
aF1495296455.0
aF1495300998.0
aF1495303286.0
aF1495327687.0
aF1495338604.0
aF1495344652.0
aF1495405319.0
aF1495406176.0
aF1495435978.0
aF1495461212.0
aF1495469884.0
aF1495475556.0
aF1495483315.0
aF1495527528.0
aF1495528585.0
aF1495532950.0
aF1495536285.0
aF1495551523.0
aF1495568394.0
aF1495619224.0
aF1495619523.0
aF1495629335.0
aF1495629855.0
aF1495655858.0
aF1495675225.0
aF1495684126.0
aF1495749468.0
aF1495773030.0
aF1495777024.0
aF1495779781.0
aF1495802119.0
aF1495805522.0
aF1495809486.0
aF1495812726.0
aF1495827228.0
aF1495828373.0
aF1495828471.0
aF1495830973.0
aF1495864341.0
aF1495882112.0
aF1495885135.0
aF1495902373.0
aF1496027437.0
aF1496033257.0
aF1496038013.0
aF1496038275.0
aF1496041904.0
aF1496068928.0
aF1496087829.0
aF1496089787.0
aF1496111516.0
aF1496147460.0
aF1496170961.0
aF1496195934.0
aF1496207583.0
aF1496209837.0
aF1496210100.0
aF1496264616.0
aF1496317807.0
aF1496326615.0
aF1496327819.0
aF1496328256.0
aF1496700802.0
aF1496769830.0
aF1496770345.0
aF1496772863.0
aF1496774420.0
aF1496778042.0
aF1496816430.0
aF1496829436.0
aF1496830477.0
aF1496834647.0
aF1496947012.0
aF1496949256.0
aF1496950955.0
aF1496989097.0
aF1496998533.0
aF1497010377.0
aF1497017519.0
aF1497020190.0
aF1497020899.0
aF1497039368.0
aF1497041909.0
aF1497044126.0
aF1497067594.0
aF1497068299.0
aF1497081267.0
aF1497093851.0
aF1497098395.0
aF1497103608.0
aF1497134116.0
aF1497202984.0
aF1497219999.0
aF1497226188.0
aF1497264914.0
aF1497267255.0
aF1497267503.0
aF1497268924.0
aF1497288059.0
aF1497345369.0
aF1497427507.0
aF1497427651.0
aF1497429049.0
aF1497430444.0
aF1497434754.0
aF1497436085.0
aF1497438803.0
aF1497441069.0
aF1497446195.0
aF1497448923.0
aF1497491032.0
aF1497496435.0
aF1497497860.0
aF1497500196.0
aF1497503586.0
aF1497527955.0
aF1497541626.0
aF1497553026.0
aF1497555583.0
aF1497557316.0
aF1497638084.0
aF1497639264.0
aF1497639933.0
aF1497653861.0
aF1497695079.0
aF1497696236.0
aF1497751841.0
aF1497802380.0
aF1497807658.0
aF1497812656.0
aF1498161873.0
aF1498167589.0
aF1498229739.0
aF1498266507.0
aF1498272996.0
aF1498273256.0
aF1498675093.0
aF1498676008.0
aF1498703188.0
aF1498803056.0
aF1498803454.0
aF1498813255.0
aF1499770643.0
aF1499772298.0
aF1499772801.0
aF1499774909.0
aF1499800867.0
aF1499801401.0
aF1499808010.0
aF1499830059.0
aF1499833819.0
aF1499837439.0
aF1499838892.0
aF1499841800.0
aF1499850422.0
aF1499852965.0
aF1499858078.0
aF1499858453.0
aF1499861678.0
aF1499863824.0
aF1499865488.0
aF1499868582.0
aF1500151445.0
aF1500152977.0
aF1500165953.0
aF1500216589.0
aF1500237893.0
aF1500241230.0
aF1500243283.0
aF1500255229.0
aF1500257060.0
aF1500260752.0
aF1500266407.0
aF1500266709.0
aF1500273881.0
aF1500325694.0
aF1500326882.0
aF1500345199.0
aF1500352693.0
aF1500353052.0
aF1500360079.0
aF1500361169.0
aF1501061824.0
aF1501062409.0
aF1501081348.0
aF1501083820.0
aF1501086107.0
aF1501094554.0
aF1501097866.0
aF1501120681.0
aF1501125476.0
aF1501174318.0
aF1501191537.0
aF1501192493.0
aF1501199117.0
aF1501203642.0
aF1501221283.0
aF1501259802.0
aF1501285766.0
aF1501290196.0
aF1501495105.0
aF1501496937.0
aF1501774583.0
aF1501777911.0
aF1501778170.0
aF1501804968.0
aF1501811665.0
aF1501814478.0
aF1501820580.0
aF1501825752.0
aF1501884221.0
aF1501885497.0
aF1501887789.0
aF1501894116.0
aF1501896281.0
aF1501914702.0
aF1501915088.0
aF1501924480.0
aF1501925191.0
aF1501925954.0
aF1501939644.0
aF1501949650.0
aF1502859133.0
aF1502859197.0
aF1502861582.0
aF1502864383.0
aF1502864894.0
aF1502873040.0
aF1502873460.0
aF1502917365.0
aF1502918538.0
aF1502920182.0
aF1502921133.0
aF1502922446.0
aF1502926373.0
aF1502948791.0
aF1502970342.0
aF1503044951.0
aF1503047754.0
aF1503065231.0
aF1503073032.0
aF1503081326.0
aF1503527995.0
aF1503540738.0
aF1503541537.0
aF1503556070.0
aF1503556101.0
aF1503606449.0
aF1503610221.0
aF1503611248.0
aF1503637084.0
aF1503644056.0
aF1503644783.0
aF1503649257.0
aF1503651394.0
aF1503663574.0
aF1503664122.0
aF1503689867.0
aF1503706699.0
aF1503744313.0
aF1503754419.0
aF1503758526.0
aF1504294364.0
aF1504295006.0
aF1504295547.0
aF1504298407.0
aF1504298549.0
aF1504320627.0
aF1504370158.0
aF1504379294.0
aF1504383407.0
aF1504383939.0
aF1504495511.0
aF1504495887.0
aF1504496277.0
aF1504500133.0
aF1504561538.0
aF1504725770.0
aF1504734641.0
aF1504764401.0
aF1504778191.0
aF1504793843.0
aF1505193876.0
aF1505193948.0
aF1505203617.0
aF1505222933.0
aF1505256270.0
aF1505334880.0
aF1505336367.0
aF1505338941.0
aF1505373798.0
aF1505377481.0
aF1505380239.0
aF1505386972.0
aF1505398844.0
aF1505402685.0
aF1505410227.0
aF1505539792.0
aF1505541137.0
aF1505685551.0
aF1505687966.0
aF1505690925.0
aF1506671551.0
aF1506675891.0
aF1506686404.0
aF1506690480.0
aF1506729926.0
aF1506769125.0
aF1506785375.0
aF1506791512.0
aF1506808619.0
aF1506813658.0
aF1506831971.0
aF1506841414.0
aF1506844078.0
aF1506858312.0
aF1506865883.0
aF1506866037.0
aF1506878248.0
aF1506880141.0
aF1506897533.0
aF1506905157.0
aF1507536752.0
aF1507596976.0
aF1507597835.0
aF1507623114.0
aF1507670975.0
aF1507728282.0
aF1507754133.0
aF1507769569.0
aF1507816417.0
aF1507938358.0
aF1507942046.0
aF1507942562.0
aF1507965737.0
aF1507965913.0
aF1507966787.0
aF1507987870.0
aF1507989905.0
aF1508028297.0
aF1508029920.0
aF1508033620.0
aF1508637941.0
aF1508660449.0
aF1508661002.0
aF1508669363.0
aF1508673326.0
aF1508682269.0
aF1508682420.0
aF1508698143.0
aF1508700939.0
aF1508711326.0
aF1508733245.0
aF1508734881.0
aF1508735220.0
aF1508735917.0
aF1508765997.0
aF1508773826.0
aF1508871020.0
aF1508891803.0
aF1508892965.0
aF1508893346.0
aF1510125652.0
aF1510163575.0
aF1510168544.0
aF1510168665.0
aF1510176868.0
aF1510177942.0
aF1510333663.0
aF1510334291.0
aF1510341151.0
aF1510343041.0
aF1510346519.0
aF1510357544.0
aF1510358609.0
aF1510440428.0
aF1510458204.0
aF1510461975.0
aF1510473093.0
aF1510496272.0
aF1510505847.0
aF1510511392.0
aF1510922058.0
aF1510932039.0
aF1510934428.0
aF1510935669.0
aF1510937729.0
aF1510946573.0
aF1510947252.0
aF1510955393.0
aF1510989586.0
aF1511036950.0
aF1511047839.0
aF1511048448.0
aF1511066446.0
aF1511275966.0
aF1511276023.0
aF1511312122.0
aF1511320450.0
aF1511330136.0
aF1511331636.0
aF1511336428.0
aF1512191649.0
aF1512192649.0
aF1512202512.0
aF1512218795.0
aF1512221670.0
aF1512225070.0
aF1512239232.0
aF1512319639.0
aF1512323073.0
aF1512324072.0
aF1512324390.0
aF1512330462.0
aF1512331355.0
aF1512333376.0
aF1512344845.0
aF1512359804.0
aF1512361752.0
aF1512362867.0
aF1512384083.0
aF1512394932.0
aF1491966974.0
aF1492012438.0
aF1492014384.0
aF1492015598.0
aF1492028852.0
aF1492031882.0
aF1492034424.0
aF1492049130.0
aF1492072929.0
aF1492078259.0
aF1492079289.0
aF1492087683.0
aF1492094770.0
aF1492103931.0
aF1492129074.0
aF1492152746.0
aF1492159557.0
aF1492160337.0
aF1492186586.0
aF1492190168.0
a.(lp0
F1517773028.0
a.(lp0
F1390280258.0
aF1390280853.0
aF1390280887.0
aF1390283754.0
aF1390284155.0
aF1390290471.0
aF1390290592.0
aF1390293106.0
a.(lp0
F1390080219.0
aF1390086047.0
aF1390088502.0
aF1390101573.0
aF1390107232.0
aF1390108531.0
aF1390108687.0
aF1390109127.0
aF1390109410.0
aF1390110095.0
aF1390113362.0
aF1390152458.0
aF1390244695.0
aF1390261020.0
aF1390298986.0
aF1390304334.0
a.(lp0
F1389981635.0
aF1389981854.0
aF1390058020.0
aF1390143831.0
aF1390169347.0
aF1390195471.0
aF1390208245.0
aF1390226228.0
aF1390227511.0
aF1390315386.0
a.(lp0
F1390289741.0
aF1390332103.0
a.(lp0
F1390345939.0
aF1390350733.0
aF1390356601.0
aF1390356947.0
a.(lp0
F1390255859.0
aF1390402612.0
a.(lp0
F1390436160.0
a.(lp0
F1390479577.0
a.(lp0
F1390480045.0
a.(lp0
F1390449354.0
aF1390450546.0
aF1390452032.0
aF1390452216.0
aF1390455418.0
aF1390463837.0
aF1390506014.0
a.(lp0
F1390507825.0
aF1390508723.0
aF1390513936.0
a.(lp0
F1390507669.0
aF1390509553.0
aF1390510020.0
aF1390519898.0
aF1390534925.0
a.(lp0
F1390537360.0
aF1390537429.0
a.(lp0
F1390314589.0
aF1390344604.0
aF1390355944.0
aF1390441707.0
aF1390441983.0
aF1390556053.0
a.(lp0
F1389713489.0
aF1389741911.0
aF1389748872.0
aF1389752726.0
aF1389754484.0
aF1389756372.0
aF1389765805.0
aF1389768724.0
aF1389772833.0
aF1389775140.0
aF1389786040.0
aF1389786097.0
aF1389788836.0
aF1389789467.0
aF1389791773.0
aF1389792964.0
aF1389796123.0
aF1389798897.0
aF1389800519.0
aF1389833483.0
aF1389834720.0
aF1389839028.0
aF1389841124.0
aF1389841860.0
aF1389842024.0
aF1389842034.0
aF1389858926.0
aF1389868870.0
aF1389875960.0
aF1389947513.0
aF1389948192.0
aF1390038798.0
aF1390049856.0
aF1390052417.0
aF1390071101.0
aF1390096566.0
aF1390439429.0
aF1390443842.0
aF1390446576.0
aF1390446750.0
aF1390531031.0
aF1390550673.0
aF1390556861.0
aF1389834720.0
aF1389839028.0
aF1389841124.0
aF1389841860.0
aF1389842024.0
aF1389842034.0
aF1389858926.0
aF1389868870.0
aF1389875960.0
aF1389947513.0
aF1389948192.0
aF1390038798.0
aF1390049856.0
aF1390052417.0
aF1390071101.0
aF1390096566.0
aF1390439429.0
aF1390443842.0
aF1390446576.0
aF1390446750.0
a.(lp0
F1312085042.0
aF1312111499.0
a.(lp0
F1312014513.0
aF1312021216.0
aF1312116437.0
a.(lp0
F1312016102.0
aF1312016305.0
aF1312016344.0
aF1312016704.0
aF1312016858.0
aF1312017368.0
aF1312018070.0
aF1312021973.0
aF1312053053.0
aF1312059189.0
aF1312064387.0
aF1312065574.0
aF1312122830.0
aF1312127918.0
a.(lp0
F1312158618.0
a.(lp0
F1312008654.0
aF1312008753.0
aF1312008898.0
aF1312010989.0
aF1312035075.0
aF1312035853.0
aF1312037926.0
aF1312087040.0
aF1312094497.0
aF1312174872.0
aF1312176040.0
aF1312179832.0
a.(lp0
F1312194381.0
a.(lp0
F1311227101.0
aF1312067460.0
aF1312201804.0
a.(lp0
F1312212320.0
a.(lp0
F1312227491.0
a.(lp0
F1312151622.0
aF1312155872.0
aF1312157714.0
aF1312166368.0
aF1312167314.0
aF1312167950.0
aF1312169288.0
aF1312174847.0
aF1312182102.0
aF1312182597.0
aF1312220584.0
aF1312231086.0
a.(lp0
F1305624578.0
aF1307158667.0
aF1312236077.0
aF1312236348.0
aF1312238087.0
aF1312238459.0
a.(lp0
F1311799823.0
aF1312148058.0
aF1312243842.0
a.(lp0
F1312133098.0
aF1312133810.0
aF1312160762.0
aF1312168073.0
aF1312180749.0
aF1312182049.0
aF1312207469.0
aF1312223560.0
aF1312235242.0
aF1312241852.0
aF1312246012.0
aF1312246664.0
a.(lp0
F1312232236.0
aF1312236233.0
aF1312239783.0
aF1312243167.0
aF1312249827.0
aF1312250897.0
aF1312253531.0
a.(lp0
F1312162319.0
aF1312189814.0
aF1312253390.0
aF1312253983.0
a.(lp0
F1294681212.0
aF1294693587.0
aF1294695647.0
aF1294703882.0
aF1294708758.0
aF1294719734.0
aF1294723074.0
aF1295389623.0
aF1295389921.0
aF1295390018.0
aF1295390227.0
aF1295390503.0
aF1295390967.0
aF1295391023.0
a.(lp0
F1293926727.0
aF1293932541.0
aF1293953966.0
aF1293977231.0
aF1294406359.0
aF1294719438.0
aF1294722779.0
aF1294724515.0
aF1294763462.0
aF1294890930.0
aF1294891414.0
aF1294941588.0
aF1295080490.0
aF1295081202.0
aF1295109034.0
aF1295245892.0
aF1295253432.0
aF1295328839.0
aF1295408064.0
a.(lp0
F1295082941.0
aF1295091114.0
aF1295407921.0
aF1295408528.0
aF1295418020.0
aF1295419910.0
aF1295454935.0
aF1295460388.0
a.(lp0
F1295428256.0
aF1295428978.0
aF1295429512.0
aF1295432242.0
aF1295432450.0
aF1295433911.0
aF1295436589.0
aF1295437565.0
aF1295438412.0
aF1295440172.0
aF1295442123.0
aF1295444298.0
aF1295444541.0
aF1295448289.0
aF1295455599.0
aF1295465527.0
aF1295471103.0
a.(lp0
F1295196019.0
aF1295353146.0
aF1295358553.0
aF1295394094.0
aF1295403908.0
aF1295454993.0
aF1295471428.0
aF1295480890.0
aF1295506755.0
aF1295507705.0
a.(lp0
F1295357024.0
aF1295364785.0
aF1295366286.0
aF1295526701.0
aF1295543484.0
a.(lp0
F1295521968.0
aF1295550609.0
aF1295563056.0
a.(lp0
F1295254648.0
aF1295255651.0
aF1295256059.0
aF1295262003.0
aF1295284362.0
aF1295285546.0
aF1295285777.0
aF1295295953.0
aF1295296816.0
aF1295299426.0
aF1295437793.0
aF1295459208.0
aF1295590014.0
aF1295590940.0
a.(lp0
F1293579354.0
aF1293579911.0
aF1293580086.0
aF1293580283.0
aF1293580923.0
aF1293581346.0
aF1293581851.0
aF1293582828.0
aF1293583494.0
aF1293584481.0
aF1293586039.0
aF1293587343.0
aF1293590510.0
aF1293592344.0
aF1293593835.0
aF1293594676.0
aF1293594965.0
aF1293597458.0
aF1293599310.0
aF1293600640.0
aF1293601805.0
aF1293602183.0
aF1293603774.0
aF1293605878.0
aF1293606985.0
aF1293607548.0
aF1293636034.0
aF1293718126.0
aF1293727581.0
aF1293748317.0
aF1293755296.0
aF1293757720.0
aF1293758094.0
aF1295583878.0
aF1295584418.0
aF1295595564.0
aF1293601805.0
aF1293602183.0
aF1293603774.0
aF1293605878.0
aF1293606985.0
aF1293607548.0
aF1293636034.0
aF1293718126.0
aF1293727581.0
aF1293748317.0
aF1293755296.0
aF1293757720.0
aF1293758094.0
aF1295583878.0
aF1295584418.0
aF1295595564.0
a.(lp0
F1293406009.0
aF1293448342.0
aF1293451172.0
aF1295406105.0
aF1295410566.0
aF1295498934.0
aF1295499246.0
aF1295594611.0
aF1295611821.0
aF1295657968.0
a.(lp0
F1295656376.0
aF1295656680.0
aF1295662286.0
aF1295662568.0
aF1295662689.0
a.(lp0
F1295229765.0
aF1295233845.0
aF1295234743.0
aF1295237158.0
aF1295239570.0
aF1295241859.0
aF1295242322.0
aF1295242442.0
aF1295242510.0
aF1295322824.0
aF1295677426.0
a.(lp0
F1295740970.0
aF1295743365.0
aF1295743524.0
aF1295744170.0
aF1295745119.0
aF1295745887.0
aF1295746937.0
aF1295747990.0
a.(lp0
F1295890762.0
a.(lp0
F1295939758.0
aF1295954251.0
aF1295967040.0
a.(lp0
F1289274436.0
aF1289276809.0
aF1289278482.0
aF1289386383.0
aF1295989769.0
aF1296006492.0
aF1296044705.0
a.(lp0
F1279109372.0
a.(lp0
F1279101278.0
aF1279120511.0
aF1279135671.0
aF1279137582.0
aF1279145039.0
aF1279145934.0
aF1279146197.0
aF1279152028.0
aF1279155024.0
aF1279192168.0
aF1279196967.0
aF1279234815.0
a.(lp0
F1279184938.0
aF1279249369.0
aF1279250263.0
aF1279264158.0
aF1279265406.0
a.(lp0
F1279250475.0
aF1279254028.0
aF1279254683.0
aF1279256105.0
aF1279256518.0
aF1279261071.0
aF1279263276.0
aF1279269987.0
aF1279271131.0
a.(lp0
F1270280070.0
aF1270283219.0
aF1270284073.0
aF1277312414.0
aF1277346488.0
aF1279275949.0
aF1279292519.0
aF1279310471.0
a.(lp0
F1279318083.0
aF1279327376.0
aF1279328564.0
aF1279328878.0
aF1279329008.0
aF1279329355.0
aF1279329512.0
aF1279330000.0
aF1279330084.0
a.(lp0
F1278987346.0
aF1279011444.0
aF1279094741.0
aF1279137872.0
aF1279146603.0
aF1279270927.0
aF1279349118.0
a.(lp0
F1271397228.0
aF1271397843.0
aF1271399586.0
aF1271401529.0
aF1271402126.0
aF1271407348.0
aF1271407839.0
aF1271420249.0
aF1271482042.0
aF1271560770.0
aF1271735499.0
aF1279369258.0
aF1279386818.0
a.(lp0
F1279011589.0
aF1279012663.0
aF1279013731.0
aF1279028521.0
aF1279054270.0
aF1279078796.0
aF1279082390.0
aF1279083367.0
aF1279101672.0
aF1279401743.0
a.(lp0
F1279304327.0
aF1279311609.0
aF1279317499.0
aF1279317694.0
aF1279317929.0
aF1279339796.0
aF1279340746.0
aF1279423928.0
a.(lp0
F1279357464.0
aF1279358391.0
aF1279365081.0
aF1279389692.0
aF1279392997.0
aF1279394567.0
aF1279419130.0
aF1279430043.0
a.(lp0
F1279434602.0
aF1279434816.0
aF1279435209.0
aF1279437952.0
aF1279439598.0
aF1279441149.0
aF1279442521.0
a.(lp0
F1279529813.0
aF1279530587.0
aF1279531395.0
aF1279531708.0
aF1279532948.0
aF1279533815.0
a.(lp0
F1279484777.0
aF1279546380.0
a.(lp0
F1279561923.0
aF1279564827.0
aF1279565753.0
a.(lp0
F1279182713.0
aF1279569166.0
a.(lp0
F1277333130.0
aF1277404253.0
aF1277465412.0
aF1277572028.0
aF1277594288.0
aF1277606146.0
aF1279044342.0
aF1279368289.0
aF1279603622.0
a.(lp0
F1279618009.0
a.(lp0
F1279629223.0
a.(lp0
F1279631003.0
aF1279665307.0
aF1279673923.0
aF1279697502.0
aF1279708721.0
a.(lp0
F1279591479.0
aF1279592720.0
aF1279595961.0
aF1279596640.0
aF1279596853.0
aF1279597151.0
aF1279600693.0
aF1279601020.0
aF1279601516.0
aF1279602063.0
aF1279602829.0
aF1279603653.0
aF1279603922.0
aF1279604299.0
aF1279604503.0
aF1279605727.0
aF1279612685.0
aF1279616099.0
aF1279617524.0
aF1279617975.0
aF1279621814.0
aF1279721567.0
aF1279621814.0
aF1279721567.0
a.(lp0
F1279725775.0
aF1279727731.0
aF1279730500.0
aF1279732340.0
aF1279732384.0
aF1279735880.0
aF1279739825.0
a.(lp0
F1278394065.0
aF1279777562.0
a.(lp0
F1279526327.0
aF1279535021.0
aF1279538578.0
aF1279570332.0
aF1279572743.0
aF1279575204.0
aF1279576624.0
aF1279577282.0
aF1279577877.0
aF1279578392.0
aF1279590896.0
aF1279591469.0
aF1279592604.0
aF1279592738.0
aF1279594316.0
aF1279598659.0
aF1279602738.0
aF1279621903.0
aF1279684829.0
aF1279686360.0
aF1279687025.0
aF1279748432.0
aF1279758362.0
aF1279780382.0
aF1279780512.0
aF1279780591.0
aF1279781018.0
aF1279782761.0
aF1279783413.0
aF1279687025.0
aF1279748432.0
aF1279758362.0
aF1279780382.0
aF1279780512.0
aF1279780591.0
aF1279781018.0
aF1279782761.0
aF1279783413.0
a.(lp0
F1279782558.0
aF1279793887.0
a.(lp0
F1279786602.0
aF1279788171.0
aF1279789172.0
aF1279808004.0
aF1279813708.0
aF1279829953.0
aF1279832030.0
aF1279832812.0
aF1279834268.0
a.(lp0
F1279841097.0
aF1279852726.0
a.(lp0
F1279702179.0
aF1279705934.0
aF1279747192.0
aF1279812368.0
aF1279843336.0
aF1279854154.0
a.(lp0
F1279780603.0
aF1279780767.0
aF1279781080.0
aF1279781248.0
aF1279795846.0
aF1279810344.0
aF1279811128.0
aF1279813183.0
aF1279830305.0
aF1279864019.0
a.