(lp0
F1515644036.0
aF1515648361.0
aF1515650029.0
aF1515651129.0
aF1515651511.0
aF1515694713.0
aF1515695698.0
aF1515696198.0
aF1515703904.0
aF1515712569.0
a.(lp0
F1512237922.0
aF1512243376.0
aF1512252262.0
aF1512566957.0
aF1512690165.0
aF1512952304.0
aF1515709989.0
aF1515710657.0
aF1515716840.0
aF1515724360.0
aF1515735506.0
aF1515736744.0
a.(lp0
F1512237922.0
aF1512243376.0
aF1512252262.0
aF1512566957.0
aF1512690165.0
aF1512952304.0
aF1515709989.0
aF1515710657.0
aF1515716840.0
aF1515724360.0
aF1515735506.0
aF1515736744.0
a.(lp0
F1511785154.0
aF1511786940.0
aF1511806723.0
aF1511807204.0
aF1511807437.0
aF1512023121.0
aF1512023563.0
aF1512041682.0
aF1512042038.0
aF1512042142.0
aF1512042448.0
aF1512054298.0
aF1512056373.0
aF1512056872.0
aF1512056950.0
aF1512058319.0
aF1512070522.0
aF1512210707.0
aF1512211299.0
aF1512212916.0
a.(lp0
F1436274010.0
aF1436416882.0
aF1436417852.0
aF1436666914.0
aF1440283919.0
aF1440287743.0
aF1440297499.0
aF1440310010.0
aF1440498975.0
aF1440575394.0
aF1440575636.0
aF1440591291.0
aF1440594913.0
aF1440605602.0
aF1440621261.0
aF1440626249.0
aF1440626730.0
aF1440627956.0
aF1440671491.0
aF1440699145.0
a.(lp0
F1435710251.0
aF1435715486.0
aF1435755942.0
aF1435894186.0
aF1435896545.0
aF1435896812.0
aF1435937855.0
aF1435957048.0
aF1435966602.0
aF1435981340.0
aF1435981725.0
aF1435986219.0
aF1435988298.0
aF1435990437.0
aF1436040077.0
aF1436236264.0
aF1436242507.0
aF1436245373.0
aF1436246800.0
aF1436249300.0
a.(lp0
F1515737083.0
a.(lp0
F1515737410.0
a.(lp0
F1515737410.0
a.(lp0
F1515162850.0
aF1515162914.0
aF1515166801.0
aF1515167620.0
aF1515169130.0
aF1515214954.0
aF1515216306.0
aF1515305395.0
aF1515306012.0
aF1515311213.0
aF1515507420.0
aF1515523167.0
aF1515532145.0
aF1515533487.0
aF1515533690.0
aF1515550189.0
aF1515731481.0
aF1515733037.0
aF1515735106.0
aF1515735579.0
a.(lp0
F1495989415.0
aF1496007494.0
aF1496008415.0
aF1496012394.0
aF1496013808.0
aF1496013903.0
aF1496014718.0
aF1496015610.0
aF1496016357.0
aF1496031902.0
aF1496034259.0
aF1496037597.0
aF1496038439.0
aF1496039132.0
aF1496055597.0
aF1496117075.0
aF1496296842.0
aF1496298148.0
aF1496299338.0
aF1496300139.0
a.(lp0
F1495920206.0
aF1495921650.0
aF1495932273.0
aF1495932419.0
aF1495935288.0
aF1495935415.0
aF1495935817.0
aF1495936320.0
aF1495937328.0
aF1495937492.0
aF1495938407.0
aF1495938438.0
aF1495938915.0
aF1495939514.0
aF1495944131.0
aF1495945903.0
aF1495948983.0
aF1495955781.0
aF1495956314.0
aF1495957735.0
a.(lp0
F1514803677.0
aF1514804549.0
aF1514814253.0
aF1514814910.0
aF1514818428.0
aF1514818699.0
aF1514829224.0
aF1514835510.0
aF1514838565.0
aF1514908760.0
aF1514913833.0
aF1514915411.0
aF1514915696.0
aF1514919065.0
aF1515331637.0
aF1515344919.0
aF1515347561.0
aF1515735993.0
aF1515737526.0
aF1515737761.0
a.(lp0
F1514803677.0
aF1514804549.0
aF1514814253.0
aF1514814910.0
aF1514818428.0
aF1514818699.0
aF1514829224.0
aF1514835510.0
aF1514838565.0
aF1514908760.0
aF1514913833.0
aF1514915411.0
aF1514915696.0
aF1514919065.0
aF1515331637.0
aF1515344919.0
aF1515347561.0
aF1515735993.0
aF1515737526.0
aF1515737761.0
a.(lp0
F1503696118.0
aF1503697368.0
aF1503697765.0
aF1503697931.0
aF1503698433.0
aF1503698797.0
aF1503698850.0
aF1503698952.0
aF1503699783.0
aF1503700190.0
aF1503700316.0
aF1503703540.0
aF1503703577.0
aF1503708226.0
aF1503716162.0
aF1503716256.0
aF1503717204.0
aF1503717437.0
aF1503719487.0
aF1503738522.0
aF1503738856.0
aF1503741622.0
aF1503741712.0
aF1503742378.0
aF1503751994.0
aF1503752431.0
aF1503752809.0
aF1503753730.0
aF1503757643.0
aF1503758513.0
aF1503759685.0
aF1503761864.0
aF1503764959.0
aF1503766129.0
aF1503769410.0
aF1503793023.0
aF1503797054.0
aF1503797834.0
aF1503972623.0
aF1503974024.0
aF1503996707.0
aF1503997001.0
aF1503998313.0
aF1503998492.0
aF1503999298.0
aF1504001980.0
aF1504004800.0
aF1504005836.0
aF1504006057.0
aF1504006917.0
aF1504013471.0
aF1504017147.0
aF1504017564.0
aF1504017931.0
aF1504031871.0
aF1504032897.0
aF1504033026.0
aF1504034825.0
aF1504037069.0
aF1504037884.0
aF1504038441.0
aF1504040156.0
aF1504040426.0
aF1504040607.0
aF1504040840.0
aF1504043518.0
aF1504044181.0
aF1504044638.0
aF1504045328.0
aF1504049708.0
aF1504051835.0
aF1504054206.0
aF1504057427.0
aF1504063271.0
aF1504067597.0
aF1504069054.0
aF1504073434.0
aF1504073580.0
aF1504126919.0
aF1504131764.0
aF1504133481.0
aF1504152418.0
aF1504152488.0
aF1504158743.0
aF1504159117.0
aF1504161452.0
aF1504162161.0
aF1504163444.0
aF1504164125.0
aF1504173324.0
aF1504175997.0
aF1504176378.0
aF1504185668.0
aF1504186549.0
aF1504189315.0
aF1504193487.0
aF1504196661.0
aF1504197510.0
aF1504197819.0
aF1504205514.0
aF1504206772.0
aF1504208722.0
aF1504218477.0
aF1504276245.0
aF1504277982.0
aF1504278713.0
aF1504279081.0
aF1504287253.0
aF1504333638.0
aF1504338896.0
aF1504354818.0
aF1504368727.0
aF1504544627.0
aF1504549309.0
aF1504552573.0
aF1504578963.0
aF1504586499.0
aF1504595312.0
aF1504595631.0
aF1504595891.0
aF1504599367.0
aF1504606672.0
aF1504609376.0
aF1504613052.0
aF1504618210.0
aF1504618361.0
aF1504618586.0
aF1504619619.0
aF1504620489.0
aF1504621177.0
aF1504621637.0
aF1504624823.0
aF1504626820.0
aF1504627845.0
aF1504628996.0
aF1504631606.0
aF1504636907.0
aF1504637993.0
aF1504639847.0
aF1504644958.0
aF1504678907.0
aF1504679718.0
aF1504680879.0
aF1504686660.0
aF1504687379.0
aF1504694541.0
aF1504695095.0
aF1504696416.0
aF1504698065.0
aF1504701262.0
aF1504701623.0
aF1504702823.0
aF1504710709.0
aF1504711092.0
aF1504822205.0
aF1504823261.0
aF1504823830.0
aF1504824507.0
aF1504824570.0
aF1504825537.0
aF1504835855.0
aF1504838707.0
aF1504839610.0
aF1505143385.0
aF1505144230.0
aF1505153685.0
aF1505399707.0
aF1505400778.0
aF1505401445.0
aF1505402043.0
aF1505403475.0
aF1505405959.0
aF1505408977.0
aF1505409097.0
aF1505419317.0
aF1505419786.0
aF1505420971.0
aF1505421216.0
aF1505433863.0
aF1505437569.0
aF1505443900.0
aF1505455249.0
aF1505514446.0
aF1505516224.0
aF1505517156.0
aF1505529400.0
aF1505559867.0
aF1505562930.0
aF1505563869.0
aF1505569606.0
aF1505575082.0
aF1505578578.0
aF1505579386.0
aF1505579477.0
aF1505626837.0
aF1505627612.0
aF1505633318.0
aF1505646043.0
aF1505646417.0
aF1505663034.0
aF1505663631.0
aF1505664963.0
aF1505665232.0
aF1505666069.0
aF1505667558.0
aF1505673633.0
aF1505674049.0
aF1505676369.0
aF1505677286.0
aF1505930229.0
aF1505933633.0
aF1505941915.0
aF1505942028.0
aF1505943205.0
aF1505943595.0
aF1506016198.0
aF1506063542.0
aF1506064627.0
aF1506084949.0
aF1506091724.0
aF1506097128.0
aF1506100129.0
aF1506100944.0
aF1506103319.0
aF1506252798.0
aF1506256273.0
aF1506258680.0
aF1506261083.0
aF1506264716.0
aF1506269743.0
aF1506274014.0
aF1506280622.0
aF1506282625.0
aF1506283091.0
aF1506283825.0
aF1506286833.0
aF1506287192.0
aF1506287889.0
aF1506290637.0
aF1506290675.0
aF1506292297.0
aF1506292743.0
aF1506300228.0
aF1506302448.0
aF1506303008.0
aF1506303139.0
aF1506303321.0
aF1506303648.0
aF1506304660.0
aF1506343867.0
aF1506351570.0
aF1506740731.0
aF1506740846.0
aF1506745909.0
aF1506790643.0
aF1506798388.0
aF1506798667.0
aF1506798785.0
aF1506799689.0
aF1506800434.0
aF1506800438.0
aF1506800607.0
aF1506801142.0
aF1506811513.0
aF1506814555.0
aF1506817130.0
aF1506819624.0
aF1506821792.0
aF1506823026.0
aF1506823210.0
aF1506824759.0
aF1506825670.0
aF1506827267.0
aF1506829484.0
aF1506829851.0
aF1506834683.0
aF1506835015.0
aF1506883944.0
aF1506885591.0
aF1506888607.0
aF1506889634.0
aF1506889944.0
aF1506890508.0
aF1506950140.0
aF1506953645.0
aF1506954384.0
aF1506956499.0
aF1506956753.0
aF1506967953.0
aF1506969918.0
aF1506978449.0
aF1506979561.0
aF1507213345.0
aF1507233088.0
aF1507233656.0
aF1507233960.0
aF1507242426.0
aF1507242947.0
aF1507244007.0
aF1507250998.0
aF1507255977.0
aF1507257041.0
aF1507257183.0
aF1507414915.0
aF1507428371.0
aF1507433405.0
aF1507443024.0
aF1507529477.0
aF1507541440.0
aF1507542867.0
aF1507544246.0
aF1507552382.0
aF1507560259.0
aF1507561985.0
aF1507569412.0
aF1507577955.0
aF1507583449.0
aF1507584921.0
aF1507584951.0
aF1507648167.0
aF1507649557.0
aF1507649854.0
aF1507651933.0
aF1507654888.0
aF1507655092.0
aF1507656352.0
aF1507662681.0
aF1507729130.0
aF1507735554.0
aF1507738450.0
aF1507742774.0
aF1507743332.0
aF1507744747.0
aF1507745303.0
aF1507746078.0
aF1507757616.0
aF1507761689.0
aF1507762284.0
aF1507818464.0
aF1507821260.0
aF1507915919.0
aF1507979882.0
aF1507982689.0
aF1507990536.0
aF1507997771.0
aF1507999770.0
aF1508000780.0
aF1508007833.0
aF1508023115.0
aF1508275481.0
aF1510177708.0
aF1514517495.0
aF1514523776.0
aF1514523994.0
aF1514524167.0
aF1514525986.0
aF1514526454.0
aF1514526607.0
aF1514526820.0
aF1514535053.0
aF1514536310.0
aF1514539250.0
aF1514539786.0
aF1514546563.0
aF1514548956.0
aF1514551017.0
aF1514554113.0
aF1514555585.0
aF1514556125.0
aF1514557256.0
aF1514557354.0
aF1514557994.0
aF1514561264.0
aF1514565434.0
aF1514565789.0
aF1514566576.0
aF1514641460.0
aF1514649255.0
aF1514654245.0
aF1514654513.0
aF1514655927.0
aF1514661590.0
aF1514662414.0
aF1514662507.0
aF1514724690.0
aF1514727325.0
aF1514727590.0
aF1514731991.0
aF1514738482.0
aF1514760042.0
aF1514762100.0
aF1514771686.0
aF1514782150.0
aF1514788947.0
aF1514793067.0
aF1514795624.0
aF1514797509.0
aF1514798172.0
aF1514799054.0
aF1514801613.0
aF1514803677.0
aF1514804549.0
aF1514814253.0
aF1514814910.0
aF1514818428.0
aF1514818699.0
aF1514829224.0
aF1514835510.0
aF1514838565.0
aF1514908760.0
aF1514913833.0
aF1514915411.0
aF1514915696.0
aF1514919065.0
aF1515331637.0
aF1515344919.0
aF1515347561.0
aF1515735993.0
aF1515737526.0
aF1515737761.0
a.(lp0
F1514655927.0
aF1514661590.0
aF1514662414.0
aF1514662507.0
aF1514724690.0
aF1514727325.0
aF1514727590.0
aF1514731991.0
aF1514738482.0
aF1514760042.0
aF1514762100.0
aF1514771686.0
aF1514782150.0
aF1514788947.0
aF1514793067.0
aF1514795624.0
aF1514797509.0
aF1514798172.0
aF1514799054.0
aF1514801613.0
a.(lp0
F1503738856.0
aF1503741622.0
aF1503741712.0
aF1503742378.0
aF1503751994.0
aF1503752431.0
aF1503752809.0
aF1503753730.0
aF1503757643.0
aF1503758513.0
aF1503759685.0
aF1503761864.0
aF1503764959.0
aF1503766129.0
aF1503769410.0
aF1503793023.0
aF1503797054.0
aF1503797834.0
aF1503972623.0
aF1503974024.0
a.(lp0
F1503696118.0
aF1503697368.0
aF1503697765.0
aF1503697931.0
aF1503698433.0
aF1503698797.0
aF1503698850.0
aF1503698952.0
aF1503699783.0
aF1503700190.0
aF1503700316.0
aF1503703540.0
aF1503703577.0
aF1503708226.0
aF1503716162.0
aF1503716256.0
aF1503717204.0
aF1503717437.0
aF1503719487.0
aF1503738522.0
a.(lp0
F1515725274.0
aF1515730057.0
aF1515731220.0
aF1515734393.0
aF1515737971.0
a.(lp0
F1512113062.0
aF1512116294.0
aF1512116680.0
aF1512116821.0
aF1512117028.0
aF1512117356.0
aF1512117549.0
aF1512118749.0
aF1512120867.0
aF1512121328.0
aF1512121500.0
aF1512121593.0
aF1512121790.0
aF1512123885.0
aF1512124348.0
aF1512124423.0
aF1512125104.0
aF1512125589.0
aF1512130679.0
aF1512131606.0
aF1512132357.0
aF1512134660.0
aF1512135119.0
aF1512135854.0
aF1512135885.0
aF1512136275.0
aF1512136847.0
aF1512138190.0
aF1512138627.0
aF1512143529.0
aF1512145021.0
aF1512145200.0
aF1512145549.0
aF1512145938.0
aF1512146082.0
aF1512146321.0
aF1512148022.0
aF1512149127.0
aF1512149391.0
aF1512149679.0
aF1512149986.0
aF1512150228.0
aF1512152648.0
aF1512158633.0
aF1512158870.0
aF1512168993.0
aF1512171160.0
aF1512171215.0
aF1512172228.0
aF1512173695.0
aF1512174221.0
aF1512175015.0
aF1512175680.0
aF1512175790.0
aF1512175954.0
aF1512178098.0
aF1512180173.0
aF1512182693.0
aF1512182735.0
aF1512183835.0
aF1512183953.0
aF1512185382.0
aF1512185614.0
aF1512187351.0
aF1512191304.0
aF1512191768.0
aF1512199132.0
aF1512199349.0
aF1512208239.0
aF1512210049.0
aF1512211782.0
aF1512212746.0
aF1512213361.0
aF1512224474.0
aF1512225683.0
aF1512227945.0
aF1512228554.0
aF1512284317.0
aF1512289859.0
aF1512291158.0
aF1512292460.0
aF1512304019.0
aF1512305917.0
aF1512309686.0
aF1512310495.0
aF1512311014.0
aF1512313025.0
aF1512313925.0
aF1512314967.0
aF1512315725.0
aF1512316207.0
aF1512316934.0
aF1512319232.0
aF1512320454.0
aF1512333649.0
aF1512334338.0
aF1512334807.0
aF1512334951.0
aF1512344330.0
aF1512354862.0
aF1512360544.0
aF1512361056.0
aF1512361703.0
aF1512364638.0
aF1512366652.0
aF1512367449.0
aF1512368449.0
aF1512368596.0
aF1512409498.0
aF1512410161.0
aF1512412208.0
aF1512413595.0
aF1512441072.0
aF1512442718.0
aF1512445064.0
aF1512445319.0
aF1512446409.0
aF1512447546.0
aF1512448923.0
aF1512449160.0
aF1512454021.0
aF1512454836.0
aF1512459652.0
aF1512462203.0
aF1512462572.0
aF1512463097.0
aF1512470679.0
aF1512471052.0
aF1512471318.0
aF1512473559.0
aF1512476398.0
aF1512476443.0
aF1512476549.0
aF1512477008.0
aF1512477516.0
aF1512478244.0
aF1512480300.0
aF1512480644.0
aF1512481148.0
aF1512481187.0
aF1512483762.0
aF1512484436.0
aF1512485215.0
aF1512648166.0
aF1512648629.0
aF1512648961.0
aF1512649073.0
aF1512649079.0
aF1512655023.0
aF1512662313.0
aF1512780052.0
aF1512780127.0
aF1512782676.0
aF1513064749.0
aF1513165763.0
aF1513166854.0
aF1513167248.0
aF1513170339.0
aF1513170951.0
aF1513171345.0
aF1513171960.0
aF1513302968.0
aF1513303137.0
aF1513304515.0
aF1513305883.0
aF1513306683.0
aF1513306971.0
aF1513307494.0
aF1513308067.0
aF1513308280.0
aF1513308319.0
aF1513720446.0
aF1513720942.0
aF1513722211.0
aF1513722518.0
aF1513731797.0
aF1514363026.0
aF1514370378.0
aF1514370641.0
aF1514372386.0
aF1514372535.0
aF1514373673.0
aF1514374057.0
aF1514374230.0
aF1514374879.0
aF1514375990.0
aF1514385073.0
aF1514386424.0
aF1514392932.0
aF1514393934.0
aF1514410598.0
aF1514411371.0
aF1514411778.0
aF1514412693.0
aF1514414862.0
aF1514470563.0
aF1514471075.0
aF1514484755.0
aF1514488634.0
aF1514488869.0
aF1514491261.0
aF1514491793.0
aF1514491895.0
aF1514494330.0
aF1514494402.0
aF1514501563.0
aF1514501728.0
aF1514502399.0
aF1514504013.0
aF1514504133.0
aF1514505405.0
aF1514507029.0
aF1514507439.0
aF1514508830.0
aF1514509201.0
aF1514510051.0
aF1514513356.0
aF1514514697.0
aF1514514989.0
aF1514527956.0
aF1514528553.0
aF1514530813.0
aF1514544666.0
aF1514545073.0
aF1514545399.0
aF1514558034.0
aF1514559454.0
aF1514566143.0
aF1514567023.0
aF1514567976.0
aF1514570300.0
aF1514570436.0
aF1514571032.0
aF1514628859.0
aF1514630853.0
aF1514632073.0
aF1514638347.0
aF1514645568.0
aF1514650133.0
aF1514651821.0
aF1514651949.0
aF1514652895.0
aF1514656562.0
aF1514656925.0
aF1514657803.0
aF1514659043.0
aF1514684585.0
aF1514685961.0
aF1515008838.0
aF1515010055.0
aF1515010413.0
aF1515010757.0
aF1515013419.0
aF1515013760.0
aF1515017208.0
aF1515017366.0
aF1515079794.0
aF1515083030.0
aF1515086829.0
aF1515087782.0
aF1515091239.0
aF1515093487.0
aF1515100419.0
aF1515101191.0
aF1515101623.0
aF1515105190.0
aF1515106396.0
aF1515106696.0
aF1515107297.0
aF1515112729.0
aF1515113099.0
aF1515114694.0
aF1515114742.0
aF1515115601.0
aF1515115957.0
aF1515116233.0
aF1515117304.0
aF1515127494.0
aF1515128063.0
aF1515128918.0
aF1515129795.0
aF1515130974.0
aF1515134505.0
aF1515135855.0
aF1515135890.0
aF1515157089.0
aF1515161456.0
aF1515162530.0
aF1515163870.0
aF1515164060.0
aF1515165115.0
aF1515167135.0
aF1515169195.0
aF1515170310.0
aF1515172130.0
aF1515172547.0
aF1515175344.0
aF1515176276.0
aF1515176776.0
aF1515177996.0
aF1515180845.0
aF1515181680.0
aF1515182388.0
aF1515182697.0
aF1515182913.0
aF1515184790.0
aF1515187599.0
aF1515187803.0
aF1515192283.0
aF1515197997.0
aF1515479879.0
aF1515536452.0
aF1515536550.0
aF1515537925.0
aF1515543077.0
aF1515551144.0
aF1515551822.0
aF1515554089.0
aF1515554470.0
aF1515557617.0
aF1515558579.0
aF1515558796.0
aF1515559975.0
aF1515561944.0
aF1515562805.0
aF1515565086.0
aF1515565863.0
aF1515565920.0
aF1515566135.0
aF1515566975.0
aF1515651091.0
aF1515651742.0
aF1515665792.0
aF1515667147.0
aF1515668768.0
aF1515670868.0
aF1515673169.0
aF1515673592.0
aF1515673621.0
aF1515675342.0
aF1515680190.0
aF1515682680.0
aF1515682873.0
aF1515688477.0
aF1515689370.0
aF1515690300.0
aF1515690773.0
aF1515703072.0
aF1515705384.0
aF1515706010.0
aF1515712664.0
aF1515714849.0
aF1515719819.0
aF1515720486.0
aF1515720680.0
aF1515720822.0
aF1515722200.0
aF1515723883.0
aF1515724356.0
aF1515724604.0
aF1515725274.0
aF1515730057.0
aF1515731220.0
aF1515734393.0
aF1515737971.0
a.