cnumpy.core.multiarray
_reconstruct
p0
(cnumpy
ndarray
p1
(I0
tp2
S'b'
p3
tp4
Rp5
(I1
(I76
tp6
cnumpy
dtype
p7
(S'O8'
p8
I0
I1
tp9
Rp10
(I3
S'|'
p11
NNNI-1
I-1
I63
tp12
bI00
(lp13
VANXBTC
p14
aVBTC38
p15
aVBTCChina
p16
aVBTCE
p17
aVBTCMarkets
p18
aVBTCXIndia
p19
aVBTER
p20
aVBinance
p21
aVBit2C
p22
aVBitBay
p23
aVBitMarket
p24
aVBitSquare
p25
aVBitTrex
p26
aVBitcoinDE
p27
aVBitfinex
p28
aVBithumb
p29
aVBitso
p30
aVBitstamp
p31
aVBleutrade
p32
aVCCCAGG
p33
aVCCEDK
p34
aVCCEX
p35
aVCHBTC
p36
aVCexio
p37
aVCoinExchange
p38
aVCoinbase
p39
aVCoincheck
p40
aVCoinfloor
p41
aVCoinone
p42
aVCoinroom
p43
aVCoinse
p44
aVCoinsetter
p45
aVCryptoX
p46
aVCryptopia
p47
aVCryptsy
p48
aVEtherDelta
p49
aVEthexIndia
p50
aVExmo
p51
aVGatecoin
p52
aVGemini
p53
aVHitBTC
p54
aVHuobi
p55
aVJubi
p56
aVKorbit
p57
aVKraken
p58
aVLakeBTC
p59
aVLiqui
p60
aVLiveCoin
p61
aVLocalBitcoins
p62
aVLuno
p63
aVLykke
p64
aVMercadoBitcoin
p65
aVMonetaGo
p66
aVMtGox
p67
aVNovaexchange
p68
aVOKCoin
p69
aVPaymium
p70
aVPoloniex
p71
aVQuadrigaCX
p72
aVQuoine
p73
aVRemitano
p74
aVTheRockTrading
p75
aVTidex
p76
aVTuxExchange
p77
aVUnocoin
p78
aVVaultoro
p79
aVViaBTC
p80
aVWavesDEX
p81
aVYacuna
p82
aVYobit
p83
aVYunbi
p84
aVZaif
p85
aVbitFlyer
p86
aVbitFlyerFX
p87
aVbtcXchange
p88
aVitBit
p89
atp90
b.