cpandas.indexes.base
_new_Index
p0
(cpandas.indexes.base
Index
p1
(dp2
S'data'
p3
cnumpy.core.multiarray
_reconstruct
p4
(cnumpy
ndarray
p5
(I0
tp6
S'b'
p7
tp8
Rp9
(I1
(I76
tp10
cnumpy
dtype
p11
(S'O8'
p12
I0
I1
tp13
Rp14
(I3
S'|'
p15
NNNI-1
I-1
I63
tp16
bI00
(lp17
VANXBTC
p18
aVBTC38
p19
aVBTCChina
p20
aVBTCE
p21
aVBTCMarkets
p22
aVBTCXIndia
p23
aVBTER
p24
aVBinance
p25
aVBit2C
p26
aVBitBay
p27
aVBitMarket
p28
aVBitSquare
p29
aVBitTrex
p30
aVBitcoinDE
p31
aVBitfinex
p32
aVBithumb
p33
aVBitso
p34
aVBitstamp
p35
aVBleutrade
p36
aVCCCAGG
p37
aVCCEDK
p38
aVCCEX
p39
aVCHBTC
p40
aVCexio
p41
aVCoinExchange
p42
aVCoinbase
p43
aVCoincheck
p44
aVCoinfloor
p45
aVCoinone
p46
aVCoinroom
p47
aVCoinse
p48
aVCoinsetter
p49
aVCryptoX
p50
aVCryptopia
p51
aVCryptsy
p52
aVEtherDelta
p53
aVEthexIndia
p54
aVExmo
p55
aVGatecoin
p56
aVGemini
p57
aVHitBTC
p58
aVHuobi
p59
aVJubi
p60
aVKorbit
p61
aVKraken
p62
aVLakeBTC
p63
aVLiqui
p64
aVLiveCoin
p65
aVLocalBitcoins
p66
aVLuno
p67
aVLykke
p68
aVMercadoBitcoin
p69
aVMonetaGo
p70
aVMtGox
p71
aVNovaexchange
p72
aVOKCoin
p73
aVPaymium
p74
aVPoloniex
p75
aVQuadrigaCX
p76
aVQuoine
p77
aVRemitano
p78
aVTheRockTrading
p79
aVTidex
p80
aVTuxExchange
p81
aVUnocoin
p82
aVVaultoro
p83
aVViaBTC
p84
aVWavesDEX
p85
aVYacuna
p86
aVYobit
p87
aVYunbi
p88
aVZaif
p89
aVbitFlyer
p90
aVbitFlyerFX
p91
aVbtcXchange
p92
aVitBit
p93
atp94
bsS'name'
p95
Nstp96
Rp97
.